(dp0
S'kim-doyal'
p1
(dp2
S'quickfacts'
p3
(dp4
S'Acquisitions'
p5
S'0'
p6
sS'Growth score'
p7
S'15'
p8
sS'Mindshare score'
p9
S'15'
p10
sS'Employees'
p11
S''
p12
sS'Last funding'
p13
S'NA'
p14
sS'Founded'
p15
S'2008'
p16
sS'Location'
p17
S'Surabaya'
p18
sS'Total funding'
p19
S'Undisclosed'
p20
sS'Stage'
p21
S'No Known Funding'
p22
ssS'products'
p23
(lp24
Vincapsula
p25
aVleadin
p26
aVadobe-typekit
p27
aVwistia
p28
aVadobe-marketing-cloud
p29
aVsumome
p30
aVinterstate-analytics
p31
aVtypepad
p32
aVquantcast-measure
p33
aVgoogle-fonts
p34
aVsendgrid
p35
aVsiftery
p36
aVmarin-audience-marketing-suite
p37
aVwordpress
p38
aVsurveymonkey
p39
aVgodaddy-dns
p40
aVcloudflare
p41
aVopentest
p42
aVmoz
p43
aVgoogle-apps-for-work
p44
aVbuffer
p45
aVrecaptcha
p46
aVadroll
p47
aVstripe
p48
aVactivecampaign
p49
aVdropbox
p50
aVdisqus
p51
aVperfect-audience
p52
aVslack
p53
aVifttt
p54
aVzapier
p55
aVhotjar
p56
aVbootstrap
p57
aVglobalsign
p58
aVgoogle-tag-manager
p59
aVgoogle-analytics
p60
aVgravity-forms
p61
asS'tags'
p62
(lp63
ssS'trey-heath'
p64
(dp65
g23
(dp66
ssS'eatstreet'
p67
(dp68
g3
(dp69
S'Acquisitions'
p70
S'0'
p71
sS'Growth score'
p72
S'431'
p73
sS'Mindshare score'
p74
S'351'
p75
sS'Employees'
p76
S'111'
p77
sS'Last funding'
p78
S'9 months ago'
p79
sS'Founded'
p80
S'2010'
p81
sS'Location'
p82
S'Madison'
p83
sS'Total funding'
p84
S'$27M'
p85
sS'Stage'
p86
S'Series C'
p87
ssg23
(lp88
Vbraintree-payments
p89
aVbranch-metrics
p90
aVmodernizr
p91
aVdropbox
p92
aVsumome
p93
aVobjective-c
p94
aVwywy
p95
aVangularjs
p96
aVmysql
p97
aVamazon-route-53
p98
aVsauce-labs
p99
aVquantcast-measure
p100
aVdisqus
p101
aVjava
p102
aVangellist-jobs
p103
aVgoogle-fonts
p104
aVsendgrid
p105
aVsiftery
p106
aVwordpress
p107
aVgodaddy-domain-registration
p108
aVgodaddy-ssl
p109
aVfullstory
p110
aVgoogle-apps-for-work
p111
aVpython
p112
aVjavascript
p113
aVadroll
p114
aVmailchimp
p115
aVsalesforce-sales-cloud
p116
aVnginx
p117
aVapache-tomcat
p118
aVstripe
p119
aVamazon-ses
p120
aVrafflecopter
p121
aVamazon-ec2
p122
aVcj-affiliate
p123
aVslack
p124
aVjquery
p125
aVnew-relic
p126
aVgoogle-analytics
p127
aVsass
p128
aVgoogle-maps
p129
aVsift-science
p130
aVtypography
p131
aVtravis-ci
p132
aVgoogle-tag-manager
p133
aVbeekeeper-data
p134
aVdashlane
p135
aVsalesforce-service-cloud
p136
asg62
(lp137
S'B2B'
p138
aS'B2C'
p139
aS'On-Demand'
p140
aS'E-Commerce'
p141
aS'Food & Beverages'
p142
aS'Hospitality'
p143
aS'Mobile'
p144
assS'scandiweb'
p145
(dp146
g3
(dp147
S'Acquisitions'
p148
S'0'
p149
sS'Growth score'
p150
S'101'
p151
sS'Mindshare score'
p152
S'101'
p153
sS'Employees'
p154
S'100'
p155
sS'Last funding'
p156
g14
sS'Founded'
p157
S'2003'
p158
sS'Location'
p159
S'Riga'
p160
sS'Total funding'
p161
S'Undisclosed'
p162
sS'Stage'
p163
S'No Known Funding'
p164
ssg23
(lp165
Vsiftery
p166
aVadobe-typekit
p167
aVdocusign
p168
aVgoogle-apps-for-work
p169
aVgoogle-drive
p170
aVskype
p171
aVamazon-route-53
p172
aVatlassian-confluence
p173
aVgoogle-adwords
p174
aVatlassian-jira
p175
aVbuffer
p176
aVoptimizely
p177
aVadobe-flash
p178
aVadroll
p179
aVmailchimp
p180
aVsalesforce-sales-cloud
p181
aVnginx
p182
aVamazon-ses
p183
aVdropbox
p184
aVamazon-ec2
p185
aVsegment
p186
aVnew-relic
p187
aVgithub
p188
aVslack
p189
aVnorbert
p190
aVatlassian-bitbucket
p191
aVgoogle-tag-manager
p192
aVgoogle-analytics
p193
asg62
(lp194
S'B2B'
p195
assS'kitedesk'
p196
(dp197
g3
(dp198
S'Acquisitions'
p199
S'0'
p200
sS'Growth score'
p201
S'294'
p202
sS'Mindshare score'
p203
S'229'
p204
sS'Employees'
p205
S'31'
p206
sS'Last funding'
p207
S'5 months ago'
p208
sS'Founded'
p209
S'2011'
p210
sS'Location'
p211
S'Tampa'
p212
sS'Total funding'
p213
S'$6M'
p214
sS'Stage'
p215
S'Pre-Series A'
p216
ssg23
(lp217
Vangellist-jobs
p218
aVadobe-typekit
p219
aVdocusign
p220
aVfullcontact
p221
aVmicrosoft-office-365
p222
aVyahoo-analytics-flurry
p223
aVoptinmonster
p224
aVneo4j
p225
aVamazon-route-53
p226
aVsalesforce-marketing-cloud
p227
aVquantcast-measure
p228
aVrecurly
p229
aVleandata
p230
aVapache-web-server
p231
aVsiftery
p232
aVzoominfo
p233
aVwordpress
p234
aVsurveymonkey
p235
aVadobe-talent-behance-jobs
p236
aVgodaddy-ssl
p237
aVbxslider
p238
aVsalesforce-pardot
p239
aVgoogle-apps-for-work
p240
aVsalesforceiq-crm
p241
aVbuffer
p242
aVintercom
p243
aVadroll
p244
aVsalesforce-sales-cloud
p245
aVapttus
p246
aVenom-domain-registration
p247
aVhtml5
p248
aVamazon-ses
p249
aVcitrix-gotomeeting
p250
aVdropbox
p251
aVdisqus
p252
aVtoutapp
p253
aVjquery
p254
aVetrigue
p255
aVslack
p256
aVifttt
p257
aVgoogle-maps
p258
aVleadlander
p259
aVgoogle-fonts
p260
aVgoogle-tag-manager
p261
aVinsideview
p262
aVzendesk
p263
aVgoogle-analytics
p264
aVmarkmonitor-domain-management
p265
asg62
(lp266
S'B2B'
p267
aS'Direct Sales'
p268
aS'SaaS'
p269
aS'Cloud Computing'
p270
aS'Enterprise Software'
p271
aS'Finance'
p272
aS'Human Resources Hr'
p273
aS'Marketing'
p274
aS'Real Estate'
p275
assS'quri'
p276
(dp277
g3
(dp278
S'Acquisitions'
p279
S'0'
p280
sS'Growth score'
p281
S'83'
p282
sS'Mindshare score'
p283
S'102'
p284
sS'Employees'
p285
S'66'
p286
sS'Last funding'
p287
S'a year ago'
p288
sS'Founded'
p289
S'2010'
p290
sS'Location'
p291
S'Bay Area'
p292
sS'Total funding'
p293
S'$31M'
p294
sS'Stage'
p295
S'Series C'
p296
ssg23
(lp297
Vmixpanel
p298
aVangellist-jobs
p299
aVsalesforce-app-cloud
p300
aVnetwork-solutions-hosting
p301
aVengagio
p302
aVaddtoany
p303
aVapache-web-server
p304
aVmarketo
p305
aVmandrill
p306
aVsiftery
p307
aVzoominfo
p308
aVwordpress
p309
aVgodaddy-ssl
p310
aVgoogle-apps-for-work
p311
aVnetwork-solutions-domain-registration
p312
aVadroll
p313
aVslack
p314
aVgoogle-maps
p315
aVbootstrap
p316
aVmedia-temple-hosting
p317
aVintuit-quickbooks
p318
aVlever
p319
aVgoogle-analytics
p320
asg62
(lp321
S'B2B'
p322
aS'Analytics'
p323
aS'Enterprise Software'
p324
aS'Marketing'
p325
aS'Mobile'
p326
aS'Retail'
p327
assS'eshares'
p328
(dp329
g3
(dp330
S'Acquisitions'
p331
S'0'
p332
sS'Growth score'
p333
S'503'
p334
sS'Mindshare score'
p335
S'311'
p336
sS'Employees'
p337
S'89'
p338
sS'Last funding'
p339
S'a year ago'
p340
sS'Founded'
p341
S'2012'
p342
sS'Location'
p343
S'Bay Area'
p344
sS'Total funding'
p345
S'$26M'
p346
sS'Stage'
p347
S'Series B'
p348
ssg23
(lp349
Vsiftery
p350
aVmixpanel
p351
aVangellist-jobs
p352
aVadobe-typekit
p353
aVhelp-scout
p354
aVbridge-us
p355
aVrainforest-qa
p356
aVnamely
p357
aVmedium
p358
aVxero
p359
aVlinkedin-ads
p360
aVfenwick-west
p361
aVkidder-mathews-tenant-advisory-services
p362
aVmandrill
p363
aVchatra
p364
aVcomodo-ssl
p365
aVmongodb
p366
aVcloudflare
p367
aVbox
p368
aVgoogle-apps-for-work
p369
aVatlassian-jira
p370
aVcalendly
p371
aVpython
p372
aVintercom
p373
aVrecaptcha
p374
aVadobe-flash
p375
aVadroll
p376
aVmailchimp
p377
aVsalesforce-sales-cloud
p378
aVnginx
p379
aVexpensify
p380
aVenom-domain-registration
p381
aVstripe
p382
aVsegment
p383
aVjquery
p384
aVnew-relic
p385
aVgoogle-drive
p386
aVcooley
p387
aVpostgresql
p388
aVslack
p389
aVlooker
p390
aVgusto
p391
aVdjango
p392
aVjavascript
p393
aVgoogle-analytics
p394
asg62
(lp395
S'B2B'
p396
aS'Enterprise Software'
p397
aS'Finance'
p398
aS'Human Resources Hr'
p399
assS'adept-marketing'
p400
(dp401
g3
(dp402
S'Acquisitions'
p403
S'0'
p404
sS'Growth score'
p405
S'46'
p406
sS'Mindshare score'
p407
S'46'
p408
sS'Employees'
p409
S'34'
p410
sS'Last funding'
p411
g14
sS'Founded'
p412
S'2007'
p413
sS'Location'
p414
S'Columbus'
p415
sS'Total funding'
p416
S'Undisclosed'
p417
sS'Stage'
p418
S'No Known Funding'
p419
ssg23
(lp420
Vbuzzsumo
p421
aVcalltrackingmetrics
p422
aVadobe-dreamweaver
p423
aVdocusign
p424
aVsiftery
p425
aVmodernizr
p426
aVgliffy
p427
aVdropbox
p428
aVusertesting
p429
aVhubspot-sales
p430
aVmysql
p431
aVorigami
p432
aVpingdom
p433
aVzenefits
p434
aVbugherd
p435
aVamazon-cloudfront
p436
aVgoogle-fonts
p437
aVlinode
p438
aVgeotrust-ssl
p439
aVasana
p440
aVhubspot-marketing-platform
p441
aVsurveymonkey
p442
aVhootsuite
p443
aVwordpress
p444
aVcloudflare
p445
aVcrazyegg
p446
aVmoz
p447
aVgoogle-apps-for-work
p448
aVatlassian-jira
p449
aVtableau-software
p450
aVevernote
p451
aVbuffer
p452
aVrecaptcha
p453
aVadroll
p454
aVaddthis
p455
aVjoinme
p456
aVinvision
p457
aVgodaddy-dns
p458
aVcanva
p459
aVhubspot-crm
p460
aVamazon-ec2
p461
aVsegment
p462
aVamazon-web-services-aws-codedeploy
p463
aVbox
p464
aVgithub
p465
aVoptimizely
p466
aVslack
p467
aVnginx
p468
aVgoogle-maps
p469
aVzapier
p470
aVringcentral
p471
aVbootstrap
p472
aVtypography
p473
aVgoogle-tag-manager
p474
aVmicrosoft-office-365
p475
aVgoogle-analytics
p476
aVbrowserstack
p477
aVgravity-forms
p478
asg62
(lp479
S'B2B'
p480
aS'Consulting'
p481
aS'Advertising'
p482
aS'Marketing'
p483
assS'yofitness'
p484
(dp485
g3
(dp486
S'Acquisitions'
p487
S'0'
p488
sS'Growth score'
p489
S'94'
p490
sS'Mindshare score'
p491
S'94'
p492
sS'Employees'
p493
g12
sS'Last funding'
p494
g14
sS'Founded'
p495
S'2014'
p496
sS'Location'
p497
S'France'
p498
sS'Total funding'
p499
S'Undisclosed'
p500
sS'Stage'
p501
S'No Known Funding'
p502
ssg23
(lp503
Vwoocommerce
p504
aVmixpanel
p505
aVmodernizr
p506
aVboomerang-for-gmail
p507
aVmicrosoft-office-365
p508
aVvisual-website-optimizer
p509
aVmandrill
p510
aVsiftery
p511
aVwordpress
p512
aVcomodo-ssl
p513
aVinspectlet
p514
aVgoogle-apps-for-work
p515
aVab-tasty
p516
aVbuffer
p517
aVintercom
p518
aVoptimizely
p519
aVpaypal
p520
aVadroll
p521
aVmention
p522
aVdropbox
p523
aVsegment
p524
aVslack
p525
aVnginx
p526
aVbootstrap
p527
aVovh-hosting
p528
aVnudgespot
p529
aVgoogle-analytics
p530
asg62
(lp531
ssS'asiainspection'
p532
(dp533
g3
(dp534
S'Acquisitions'
p535
S'0'
p536
sS'Growth score'
p537
S'98'
p538
sS'Mindshare score'
p539
S'98'
p540
sS'Employees'
p541
S'466'
p542
sS'Last funding'
p543
g14
sS'Founded'
p544
S'2005'
p545
sS'Location'
p546
S'Hong Kong'
p547
sS'Total funding'
p548
S'Undisclosed'
p549
sS'Stage'
p550
S'No Known Funding'
p551
ssg23
(lp552
Vgoogle-cloud-messaging
p553
aVapache-commons
p554
aVadobe-marketing-cloud
p555
aVmicrosoft-office-365
p556
aVparse-analytics
p557
aVtableau-software
p558
aVapache-web-server
p559
aVmarketo
p560
aVbime
p561
aVadobe-analytics
p562
aVsiftery
p563
aVasana
p564
aVhubspot-marketing-platform
p565
aVsurveymonkey
p566
aVhootsuite
p567
aVbenchmark
p568
aVcriteo
p569
aVzoho-crm
p570
aVgoogle-apps-for-work
p571
aVapp-annie
p572
aVnetwork-solutions-domain-registration
p573
aVadroll
p574
aVavature
p575
aVmention
p576
aVamazon-ses
p577
aVdropbox
p578
aVmicrosoft-outlook
p579
aVslack
p580
aVifttt
p581
aVgoogle-maps
p582
aVbootstrap
p583
aVgoogle-tag-manager
p584
aVadjust
p585
aVneustar-ultradns
p586
aVparse-core
p587
aVgoogle-analytics
p588
aVzoho-campaigns
p589
asg62
(lp590
S'B2B'
p591
aS'Transportation'
p592
assS'beautylish'
p593
(dp594
g3
(dp595
S'Acquisitions'
p596
S'0'
p597
sS'Growth score'
p598
S'157'
p599
sS'Mindshare score'
p600
S'95'
p601
sS'Employees'
p602
S'64'
p603
sS'Last funding'
p604
S'3 years ago'
p605
sS'Founded'
p606
S'2010'
p607
sS'Location'
p608
S'Bay Area'
p609
sS'Total funding'
p610
S'$9M'
p611
sS'Stage'
p612
S'Pre-Series A'
p613
ssg23
(lp614
Vunderscorejs
p615
aVangellist-jobs
p616
aVapache-commons
p617
aVmodernizr
p618
aVbackbonejs
p619
aVgoogle-drive
p620
aVgreenhouse
p621
aVamazon-route-53
p622
aVzenefits
p623
aVrollbar
p624
aVamazon-cloudfront
p625
aVtalkdesk
p626
aVsendgrid
p627
aVsiftery
p628
aVeshares
p629
aVgoogle-wallet
p630
aVolark
p631
aVcomodo-ssl
p632
aVrjmetrics
p633
aVgoogle-apps-for-work
p634
aVpaypal
p635
aVpython
p636
aVjavascript
p637
aVadroll
p638
aVmailchimp
p639
aVnginx
p640
aVexpensify
p641
aVenom-domain-registration
p642
aVamazon-ses
p643
aVamazon-ec2
p644
aVslack
p645
aVbox
p646
aVnew-relic
p647
aVgithub
p648
aVopenpay
p649
aVmailgun
p650
aVgoogle-maps
p651
aVsift-science
p652
aVgusto
p653
aVbraintree-payments
p654
aVintuit-quickbooks
p655
aVzendesk
p656
aVindicative
p657
aVgoogle-analytics
p658
aVrequirejs
p659
asg62
(lp660
S'B2C'
p661
aS'E-Commerce'
p662
aS'Fashion'
p663
aS'Mobile'
p664
assS'socrata'
p665
(dp666
g3
(dp667
S'Acquisitions'
p668
S'0'
p669
sS'Growth score'
p670
S'291'
p671
sS'Mindshare score'
p672
S'142'
p673
sS'Employees'
p674
S'167'
p675
sS'Last funding'
p676
S'2 years ago'
p677
sS'Founded'
p678
S'2007'
p679
sS'Location'
p680
S'Seattle'
p681
sS'Total funding'
p682
S'$55M'
p683
sS'Stage'
p684
S'Series C'
p685
ssg23
(lp686
Vinfluitive
p687
aVsiftery
p688
aVangellist-jobs
p689
aVdyn-dns
p690
aVmodernizr
p691
aVmicrosoft-office-365
p692
aVchef
p693
aVgoogle-drive
p694
aVengagio
p695
aVmcafee-saas
p696
aVmarketo
p697
aVdisqus
p698
aVwp-engine
p699
aVoutbrain
p700
aVcirrus-insight
p701
aVsendgrid
p702
aVlinode
p703
aVgeotrust-ssl
p704
aVliveperson
p705
aVjobvite
p706
aVdocusign
p707
aVolark
p708
aVwordpress
p709
aVsurveymonkey
p710
aVgodaddy-domain-registration
p711
aVhootsuite
p712
aVfme-by-safe
p713
aVjquery
p714
aVgoogle-apps-for-work
p715
aVjavascript
p716
aVoptimizely
p717
aVadobe-flash
p718
aVadroll
p719
aVmention
p720
aVfivetran
p721
aVcampaign-calendar
p722
aVdropbox
p723
aVphp
p724
aVgoogle-custom-search
p725
aVon24
p726
aVslack
p727
aVnginx
p728
aVgoogle-maps
p729
aVbootstrap
p730
aVgoogle-fonts
p731
aVgoogle-tag-manager
p732
aVcampaign-monitor
p733
aVzendesk
p734
aVgoogle-analytics
p735
aVfull-circle-insights
p736
asg62
(lp737
S'B2B'
p738
aS'SaaS'
p739
aS'Analytics'
p740
aS'Cloud Computing'
p741
aS'Enterprise Software'
p742
aS'Government'
p743
assS'mayvenn'
p744
(dp745
g3
(dp746
S'Acquisitions'
p747
S'0'
p748
sS'Growth score'
p749
S'789'
p750
sS'Mindshare score'
p751
S'360'
p752
sS'Employees'
p753
S'170'
p754
sS'Last funding'
p755
S'a year ago'
p756
sS'Founded'
p757
S'2013'
p758
sS'Location'
p759
S'Bay Area'
p760
sS'Total funding'
p761
S'$16M'
p762
sS'Stage'
p763
S'Series A'
p764
ssg23
(lp765
Vangellist-jobs
p766
aVsumo-logic
p767
aVwistia
p768
aVmaxcdn
p769
aVtypeform
p770
aVhoneybadger
p771
aVamazon-route-53
p772
aVdigicert
p773
aVconvert-experiences
p774
aVpivotal-tracker
p775
aVtalkdesk
p776
aVruby-on-rails
p777
aVstripe
p778
aVsiftery
p779
aVtalkable
p780
aVamazon-redshift
p781
aVasana
p782
aVwoopra
p783
aVbugsnag
p784
aVgoogle-apps-for-work
p785
aVoptimizely
p786
aVadroll
p787
aVmailchimp
p788
aVinvision
p789
aVenom-domain-registration
p790
aVsprinklr
p791
aVamazon-ec2
p792
aVsegment
p793
aVgithub
p794
aVpagerduty
p795
aVslack
p796
aVlooker
p797
aVmandrill
p798
aVgoogle-tag-manager
p799
aVamazon-dynamodb
p800
aVzendesk
p801
aVsonar
p802
aVget-satisfaction
p803
aVgoogle-analytics
p804
aVbrowserstack
p805
aVriskified
p806
asg62
(lp807
S'B2B'
p808
aS'E-Commerce'
p809
aS'Real Estate'
p810
aS'Retail'
p811
assS'app-annie'
p812
(dp813
g3
(dp814
S'Acquisitions'
p815
S'3'
p816
sS'Growth score'
p817
S'714'
p818
sS'Mindshare score'
p819
S'355'
p820
sS'Employees'
p821
S'530'
p822
sS'Last funding'
p823
S'8 months ago'
p824
sS'Founded'
p825
S'2010'
p826
sS'Location'
p827
S'Bay Area'
p828
sS'Total funding'
p829
S'$157M'
p830
sS'Stage'
p831
S'Late'
p832
ssg23
(lp833
Vculture-amp
p834
aVbuzzsumo
p835
aVclari
p836
aVangellist-jobs
p837
aVmoz
p838
aVdyn-dns
p839
aVgainsight
p840
aVnetsuite-erp
p841
aVpercolate
p842
aVmicrosoft-office-365
p843
aVnetsuite-crm
p844
aVusabilla
p845
aVgreenhouse
p846
aVnew-relic
p847
aVuservoice
p848
aVdigicert
p849
aVsalesforce-marketing-cloud
p850
aVdemandbase
p851
aVredbooth
p852
aVevernote
p853
aVconcur
p854
aVkidder-mathews-tenant-advisory-services
p855
aVmandrill
p856
aVruby
p857
aVsendgrid
p858
aVsiftery
p859
aVthe-muse
p860
aVwistia
p861
aVjobvite
p862
aVnanigans
p863
aVsplash
p864
aVoracle-marketing-cloud-formerly-responsys
p865
aVhootsuite
p866
aVbalsamiq
p867
aVatlassian-jira
p868
aVclearslide
p869
aVmarketo
p870
aVgoogle-apps-for-work
p871
aVcamtasia
p872
aVtableau-software
p873
aVgodaddy-domain-registration
p874
aVwalkme
p875
aVpython
p876
aVoptimizely
p877
aVadroll
p878
aVoutreach
p879
aVaddthis
p880
aVoracle-peoplesoft
p881
aVadobe-illustrator
p882
aVsmartling
p883
aVheap
p884
aVdropbox
p885
aVadobe-indesign
p886
aVsegment
p887
aVleanplum
p888
aVyammer
p889
aVbox
p890
aVon24
p891
aVpostgresql
p892
aVslack
p893
aVifttt
p894
aVappsflyer
p895
aVzapier
p896
aVtrello
p897
aVusabilityhub
p898
aVbluenose
p899
aVkenshoo
p900
aVzendesk
p901
aVgoogle-analytics
p902
aVnginx
p903
aVkissmetrics
p904
aVdocusign
p905
aVglassdoor-jobs
p906
asg62
(lp907
S'B2B'
p908
aS'Analytics'
p909
aS'Enterprise Software'
p910
aS'Marketing'
p911
aS'Marketing Analytics'
p912
aS'Mobile'
p913
assS'click-perform'
p914
(dp915
g23
(dp916
ssS'social-mafia'
p917
(dp918
g23
(dp919
ssS'zapstitch'
p920
(dp921
g23
(dp922
ssS'the-social-edge'
p923
(dp924
g23
(dp925
ssS'snapapp'
p926
(dp927
g3
(dp928
S'Acquisitions'
p929
S'0'
p930
sS'Growth score'
p931
S'269'
p932
sS'Mindshare score'
p933
S'89'
p934
sS'Employees'
p935
S'78'
p936
sS'Last funding'
p937
S'10 months ago'
p938
sS'Founded'
p939
S'2006'
p940
sS'Location'
p941
S'Boston'
p942
sS'Total funding'
p943
S'$12M'
p944
sS'Stage'
p945
S'Series A'
p946
ssg23
(lp947
Vsalesloft
p948
aVbuzzsumo
p949
aVdocusign
p950
aVwistia
p951
aVmicrosoft-office-365
p952
aVsumome
p953
aVhubspot-sales
p954
aVmineraltree
p955
aVoptinmonster
p956
aVamazon-route-53
p957
aVzenefits
p958
aVmarketo
p959
aVdisqus
p960
aVsendgrid
p961
aVsiftery
p962
aVtotango
p963
aVgodaddy-domain-registration
p964
aVreadytalk
p965
aVgoogle-apps-for-work
p966
aVatlassian-jira
p967
aVadroll
p968
aVoptimizely
p969
aVdrift
p970
aVsalesforce-sales-cloud
p971
aVfreshservice
p972
aVmicrosoft-outlook
p973
aVbraintree-payments
p974
aVinsightsquared
p975
aVamazon-ec2
p976
aVlivechat
p977
aVslack
p978
aVjquery
p979
aVgithub
p980
aVuberflip
p981
aVnginx
p982
aVdrupal
p983
aVbootstrap
p984
aVgoogle-analytics
p985
aVwebex-from-cisco
p986
asg62
(lp987
S'B2B'
p988
aS'SaaS'
p989
aS'Advertising'
p990
aS'Analytics'
p991
aS'Enterprise Software'
p992
aS'Marketing'
p993
assS'conversionex'
p994
(dp995
g23
(dp996
ssS'hiringthing'
p997
(dp998
g3
(dp999
S'Acquisitions'
p1000
S'0'
p1001
sS'Growth score'
p1002
S'169'
p1003
sS'Mindshare score'
p1004
S'168'
p1005
sS'Employees'
p1006
S'7'
p1007
sS'Last funding'
p1008
S'5 years ago'
p1009
sS'Founded'
p1010
S'2012'
p1011
sS'Location'
p1012
S'Portland'
p1013
sS'Total funding'
p1014
S'$1M'
p1015
sS'Stage'
p1016
S'Pre-Series A'
p1017
ssg23
(lp1018
Vtrello
p1019
aVfreshdesk
p1020
aVadobe-typekit
p1021
aVamazon-route-53
p1022
aVchargify
p1023
aVact-on
p1024
aVdynadot-domain-registration
p1025
aVsharethis
p1026
aVsiftery
p1027
aVwordpress
p1028
aVcomodo-ssl
p1029
aVhootsuite
p1030
aVautopilot
p1031
aVoptimizely
p1032
aVgoogle-apps-for-work
p1033
aVrecaptcha
p1034
aVadroll
p1035
aVnginx
p1036
aVauthorizenet
p1037
aVdropbox
p1038
aVdisqus
p1039
aVslack
p1040
aVjquery
p1041
aVnew-relic
p1042
aVgrowth-geeks
p1043
aVzapier
p1044
aVbootstrap
p1045
aVgoogle-fonts
p1046
aVgoogle-analytics
p1047
aVgoogle-compute-engine
p1048
aVsalesforce-service-cloud
p1049
asg62
(lp1050
S'B2B'
p1051
aS'Analytics'
p1052
aS'Career / Job Search'
p1053
aS'Human Resources'
p1054
aS'Human Resources Hr'
p1055
aS'Social Networking'
p1056
assS'lawrence-schiller'
p1057
(dp1058
g3
(dp1059
S'Acquisitions'
p1060
S'0'
p1061
sS'Growth score'
p1062
S'-68'
p1063
sS'Mindshare score'
p1064
S'-68'
p1065
sS'Employees'
p1066
g12
sS'Last funding'
p1067
g14
sS'Founded'
p1068
S'1976'
p1069
sS'Location'
p1070
S'Sioux Falls'
p1071
sS'Total funding'
p1072
S'Undisclosed'
p1073
sS'Stage'
p1074
S'No Known Funding'
p1075
ssg23
(lp1076
Vmodernizr
p1077
aVmarin-audience-marketing-suite
p1078
aVamazon-route-53
p1079
aVzenefits
p1080
aVamazon-ec2
p1081
aVapache-web-server
p1082
aVsiftery
p1083
aVgeotrust-ssl
p1084
aVasana
p1085
aVhubspot-marketing-platform
p1086
aVsurveymonkey
p1087
aVhootsuite
p1088
aVmoz
p1089
aVoptimizely
p1090
aVadroll
p1091
aVaddthis
p1092
aVdisqus
p1093
aVsalesforce-marketing-cloud
p1094
aVjquery
p1095
aVmicrosoft-outlook
p1096
aVslack
p1097
aVifttt
p1098
aVgoogle-analytics
p1099
asg62
(lp1100
S'Advertising'
p1101
aS'Marketing'
p1102
assS'zemanta'
p1103
(dp1104
g3
(dp1105
S'Acquisitions'
p1106
S'0'
p1107
sS'Growth score'
p1108
S'-47'
p1109
sS'Mindshare score'
p1110
S'-45'
p1111
sS'Employees'
p1112
S'29 '
p1113
sS'Last funding'
p1114
S'3 years ago'
p1115
sS'Founded'
p1116
S'2007'
p1117
sS'Location'
p1118
S'London'
p1119
sS'Total funding'
p1120
S'$7M'
p1121
sS'Stage'
p1122
S'Acquired'
p1123
ssg23
(lp1124
Vsquarespace
p1125
aVmixpanel
p1126
aVadobe-typekit
p1127
aVdistil-networks
p1128
aVsumome
p1129
aVcakehr
p1130
aVjava
p1131
aVgoogle-fonts
p1132
aVsiftery
p1133
aVwebpack
p1134
aVgodaddy-domain-registration
p1135
aVworkable
p1136
aVcloudflare
p1137
aVgodaddy-ssl
p1138
aVgoogle-apps-for-work
p1139
aVintercom
p1140
aVadroll
p1141
aVsalesforce-sales-cloud
p1142
aVnginx
p1143
aVexpensify
p1144
aVamazon-ses
p1145
aVsqurb
p1146
aVdropbox
p1147
aVadsnative-exchange
p1148
aVnew-relic
p1149
aVgithub
p1150
aVslack
p1151
aVmailgun
p1152
aVgoogle-maps
p1153
aVgoogle-tag-manager
p1154
aVintuit-quickbooks
p1155
aVscripted
p1156
aVlever
p1157
aVgoogle-analytics
p1158
asg62
(lp1159
S'B2B'
p1160
aS'Advertising'
p1161
aS'Enterprise Software'
p1162
aS'Marketing'
p1163
aS'Media'
p1164
assS'red-sky'
p1165
(dp1166
g3
(dp1167
S'Acquisitions'
p1168
S'0'
p1169
sS'Growth score'
p1170
S'3'
p1171
sS'Mindshare score'
p1172
S'3'
p1173
sS'Employees'
p1174
g12
sS'Last funding'
p1175
g14
sS'Founded'
p1176
g14
sS'Location'
p1177
S'Szczecin'
p1178
sS'Total funding'
p1179
S'Undisclosed'
p1180
sS'Stage'
p1181
S'No Known Funding'
p1182
ssg23
(lp1183
Vnew-relic
p1184
aVgoogle-apps-for-work
p1185
aVsiftery
p1186
aVtrello
p1187
aVbuffer
p1188
aVoptimizely
p1189
aVdoorbell
p1190
aVadroll
p1191
aVhootsuite
p1192
aVnginx
p1193
aVzendesk
p1194
aVdropbox
p1195
aVadobe-edge-web-fonts
p1196
asg62
(lp1197
ssS'invoate'
p1198
(dp1199
g3
(dp1200
S'Acquisitions'
p1201
S'0'
p1202
sS'Growth score'
p1203
S'36'
p1204
sS'Mindshare score'
p1205
S'36'
p1206
sS'Employees'
p1207
g12
sS'Last funding'
p1208
g14
sS'Founded'
p1209
S'2015'
p1210
sS'Location'
p1211
S'Atlanta'
p1212
sS'Total funding'
p1213
S'Undisclosed'
p1214
sS'Stage'
p1215
S'No Known Funding'
p1216
ssg23
(lp1217
Vbootstrap
p1218
aVapache-web-server
p1219
aVgit
p1220
aVruby-on-rails
p1221
aVgoogle-fonts
p1222
aVsiftery
p1223
aVheroku
p1224
aVwordpress
p1225
aVcomodo-ssl
p1226
aVgoogle-apps-for-work
p1227
aVmedium
p1228
aVbreezy-hr
p1229
aVmongodb
p1230
aVdoorbell
p1231
aVadroll
p1232
aVcodeship
p1233
aVinvision
p1234
aVbower
p1235
aVgithub
p1236
aVslack
p1237
aVnamecheap-web-hosting
p1238
aVatlassian-bitbucket
p1239
aVgoogle-tag-manager
p1240
aVgoogle-analytics
p1241
aVrawgit
p1242
asg62
(lp1243
S'B2B'
p1244
aS'Consulting'
p1245
aS'Software Development'
p1246
assS'praber'
p1247
(dp1248
g3
(dp1249
S'Acquisitions'
p1250
S'0'
p1251
sS'Growth score'
p1252
S'24'
p1253
sS'Mindshare score'
p1254
S'24'
p1255
sS'Employees'
p1256
g12
sS'Last funding'
p1257
g14
sS'Founded'
p1258
g14
sS'Location'
p1259
g12
sS'Total funding'
p1260
S'Undisclosed'
p1261
sS'Stage'
p1262
S'No Known Funding'
p1263
ssg23
(lp1264
Vlayer
p1265
aVbugherd
p1266
aVuservoice
p1267
aVheap
p1268
aVfreshdesk
p1269
aVsiftery
p1270
aVpaypal
p1271
aVklaviyo
p1272
aVinspectlet
p1273
aVelevio
p1274
aVtapstream
p1275
aVdropbox
p1276
aVmixpanel
p1277
aVamazon-route-53
p1278
aVpingdom
p1279
aVgeotrust-ssl
p1280
aVtaplytics
p1281
aVquantcast-measure
p1282
aVoutbound
p1283
aVgauges
p1284
aVgoogle-fonts
p1285
aVimprovely
p1286
aVkissmetrics
p1287
aVextole
p1288
aVtrakio
p1289
aVmarin-audience-marketing-suite
p1290
aVerrorception
p1291
aVuserlike
p1292
aVolark
p1293
aVhubspot-marketing-platform
p1294
aVlucky-orange
p1295
aVnginx
p1296
aVhello-bar
p1297
aVravenjs
p1298
aVmouseflow
p1299
aVlytics
p1300
aVsatismeter
p1301
aVfullstory
p1302
aVgoogle-apps-for-work
p1303
aVatlassian-jira
p1304
aVwoopra
p1305
aVbuffer
p1306
aVintercom
p1307
aVwebengage
p1308
aVclicky
p1309
aVadroll
p1310
aVappcues
p1311
aVmention
p1312
aVclicktale
p1313
aVcustomerio
p1314
aVyandex-metrica
p1315
aVlivechat
p1316
aVevergage
p1317
aVrollbar
p1318
aVsegment
p1319
aVbronto
p1320
aVjquery
p1321
aVperfect-audience
p1322
aVinvision
p1323
aVgoogle-maps
p1324
aVnamecom-hosting
p1325
aVdrip
p1326
aVchartbeat
p1327
aVnudgespot
p1328
aVblueshift
p1329
aVgoogle-tag-manager
p1330
aVtrello
p1331
aVgoogle-analytics
p1332
aVmousestats
p1333
aVhotjar
p1334
aVstripe
p1335
asg62
(lp1336
S'Marketplace'
p1337
aS'Mobile'
p1338
assS'epoxy'
p1339
(dp1340
g3
(dp1341
S'Acquisitions'
p1342
S'0'
p1343
sS'Growth score'
p1344
S'454'
p1345
sS'Mindshare score'
p1346
S'428'
p1347
sS'Employees'
p1348
S'24'
p1349
sS'Last funding'
p1350
S'2 years ago'
p1351
sS'Founded'
p1352
S'2013'
p1353
sS'Location'
p1354
S'Los Angeles'
p1355
sS'Total funding'
p1356
S'$9M'
p1357
sS'Stage'
p1358
S'Series A'
p1359
ssg23
(lp1360
Vyesware
p1361
aVangellist-jobs
p1362
aVnodejs
p1363
aVmicrosoft-office-365
p1364
aVbackbonejs
p1365
aVdropbox
p1366
aVjoinme
p1367
aVamazon-route-53
p1368
aVruby-on-rails
p1369
aVinsightly
p1370
aVsendgrid
p1371
aVsiftery
p1372
aVredis
p1373
aVwordpress
p1374
aVcomodo-ssl
p1375
aVintercom
p1376
aVadobe-illustrator
p1377
aVmemcached
p1378
aVphusion-passenger
p1379
aVgoogle-apps-for-work
p1380
aVatlassian-jira
p1381
aVtableau-software
p1382
aVnew-relic
p1383
aVpython
p1384
aVmongodb
p1385
aVpaypal
p1386
aVadroll
p1387
aVmailchimp
p1388
aVexpressjs
p1389
aVnginx
p1390
aVstripe
p1391
aVpostmark
p1392
aVamazon-ec2
p1393
aVruby
p1394
aVslack
p1395
aVhaproxy
p1396
aVchef
p1397
aVapache-hadoop
p1398
aVsass
p1399
aVzoom
p1400
aVgoogle-fonts
p1401
aVintuit-quickbooks
p1402
aVapache-cassandra
p1403
aVgoogle-analytics
p1404
aVkissmetrics
p1405
asg62
(lp1406
S'B2B'
p1407
aS'B2C'
p1408
aS'SaaS'
p1409
aS'Analytics'
p1410
aS'E-Commerce'
p1411
aS'Gaming'
p1412
aS'Marketing'
p1413
assS'lever'
p1414
(dp1415
g3
(dp1416
S'Acquisitions'
p1417
S'0'
p1418
sS'Growth score'
p1419
S'988'
p1420
sS'Mindshare score'
p1421
S'678'
p1422
sS'Employees'
p1423
S'113'
p1424
sS'Last funding'
p1425
S'8 months ago'
p1426
sS'Founded'
p1427
S'2012'
p1428
sS'Location'
p1429
S'Bay Area'
p1430
sS'Total funding'
p1431
S'$33M'
p1432
sS'Stage'
p1433
S'Series B'
p1434
ssg23
(lp1435
Vunbounce
p1436
aVtrello
p1437
aVangellist-jobs
p1438
aVdocusign
p1439
aVnamely
p1440
aVclara
p1441
aVchef
p1442
aVrainforest-qa
p1443
aVsnapwidget
p1444
aVdropbox
p1445
aVjoinme
p1446
aVamazon-route-53
p1447
aVdigicert
p1448
aVzenefits
p1449
aVstackpile
p1450
aVquantcast-measure
p1451
aVpipedrive
p1452
aVleandata
p1453
aVkissmetrics
p1454
aVsiftery
p1455
aVredis
p1456
aVasana
p1457
aVhubspot-marketing-platform
p1458
aVsurveymonkey
p1459
aVmongodb
p1460
aVapache-solr
p1461
aVcrazyegg
p1462
aVsimppler
p1463
aVoptimonk
p1464
aVgoogle-apps-for-work
p1465
aVlinkedin-recruiter
p1466
aVthelions
p1467
aVintercom
p1468
aVrecaptcha
p1469
aVjavascript
p1470
aVadroll
p1471
aVoutreach
p1472
aVaddthis
p1473
aVexpensify
p1474
aVpersistiq
p1475
aVheap
p1476
aVcitrix-gotomeeting
p1477
aVhubspot-crm
p1478
aVamazon-ec2
p1479
aVsegment
p1480
aVtoutapp
p1481
aVdatahug
p1482
aVjquery
p1483
aVnew-relic
p1484
aVoptimizely
p1485
aVslack
p1486
aVmailgun
p1487
aVnamecheap-web-hosting
p1488
aVzapier
p1489
aVgusto
p1490
aVgoogle-fonts
p1491
aVworkramp
p1492
aVelasticsearch
p1493
aVzendesk
p1494
aVbizible
p1495
aVgoogle-analytics
p1496
aVtriplebyte
p1497
asg62
(lp1498
S'B2B'
p1499
aS'SaaS'
p1500
aS'Career / Job Search'
p1501
aS'Enterprise Software'
p1502
aS'Human Resources'
p1503
aS'Human Resources Hr'
p1504
assS'webmerge'
p1505
(dp1506
g3
(dp1507
S'Acquisitions'
p1508
S'0'
p1509
sS'Growth score'
p1510
S'200'
p1511
sS'Mindshare score'
p1512
S'200'
p1513
sS'Employees'
p1514
S'1'
p1515
sS'Last funding'
p1516
g14
sS'Founded'
p1517
S'2011'
p1518
sS'Location'
p1519
S'Los Angeles'
p1520
sS'Total funding'
p1521
S'Undisclosed'
p1522
sS'Stage'
p1523
S'No Known Funding'
p1524
ssg23
(lp1525
Vnew-relic
p1526
aVgoogle-apps-for-work
p1527
aVgithub
p1528
aVbasecamp
p1529
aVmandrill
p1530
aVbuffer
p1531
aVsendgrid
p1532
aVsiftery
p1533
aVadroll
p1534
aVmailchimp
p1535
aVnginx
p1536
aVgoogle-fonts
p1537
aVauthorizenet
p1538
aVzendesk
p1539
aVtrello
p1540
aVamazon-route-53
p1541
aVamazon-ec2
p1542
aVgoogle-analytics
p1543
aVgodaddy-ssl
p1544
asg62
(lp1545
S'B2B'
p1546
aS'Finance'
p1547
aS'Marketing'
p1548
assS'flint-group-1'
p1549
(dp1550
g3
(dp1551
S'Acquisitions'
p1552
S'0'
p1553
sS'Growth score'
p1554
S'27'
p1555
sS'Mindshare score'
p1556
S'27'
p1557
sS'Employees'
p1558
g12
sS'Last funding'
p1559
g14
sS'Founded'
p1560
S'1946'
p1561
sS'Location'
p1562
S'Fargo'
p1563
sS'Total funding'
p1564
S'Undisclosed'
p1565
sS'Stage'
p1566
S'No Known Funding'
p1567
ssg23
(lp1568
Vunbounce
p1569
aVadobe-marketing-cloud
p1570
aVbox
p1571
aVdigicert
p1572
aVapache-web-server
p1573
aVsiftery
p1574
aVwordpress
p1575
aVsurveymonkey
p1576
aVhootsuite
p1577
aVmicrosoft-dynamics-crm
p1578
aVmoz
p1579
aVmicrosoft-office-365
p1580
aVmodernizr
p1581
aVbuffer
p1582
aVcrazyegg
p1583
aVadroll
p1584
aVaddthis
p1585
aVdropbox
p1586
aVofferpop
p1587
aVjquery
p1588
aVyahoo-ui-library
p1589
aVmicrosoft-outlook
p1590
aVifttt
p1591
aVzapier
p1592
aVibm-marketing-cloud-formerly-silverpop
p1593
aVgoogle-tag-manager
p1594
aVarkadin
p1595
aVgoogle-analytics
p1596
asg62
(lp1597
ssS'pazarlamasyon'
p1598
(dp1599
g3
(dp1600
S'Acquisitions'
p1601
S'0'
p1602
sS'Growth score'
p1603
S'233'
p1604
sS'Mindshare score'
p1605
S'233'
p1606
sS'Employees'
p1607
S'23'
p1608
sS'Last funding'
p1609
g14
sS'Founded'
p1610
S'2011'
p1611
sS'Location'
p1612
S'Istanbul'
p1613
sS'Total funding'
p1614
S'Undisclosed'
p1615
sS'Stage'
p1616
S'No Known Funding'
p1617
ssg23
(lp1618
Vtrello
p1619
aVadobe-marketing-cloud
p1620
aVsumome
p1621
aVtypepad
p1622
aVquantcast-measure
p1623
aVgoogle-fonts
p1624
aVgleam
p1625
aVsiftery
p1626
aVgeotrust-ssl
p1627
aVwordpress
p1628
aVsurveymonkey
p1629
aVhootsuite
p1630
aVcriteo
p1631
aVmoz
p1632
aVmicrosoft-office-365
p1633
aVkenshoo
p1634
aVbuffer
p1635
aVadroll
p1636
aVmention
p1637
aVdropbox
p1638
aVdisqus
p1639
aVyandex-mail
p1640
aVbox
p1641
aVifttt
p1642
aVzapier
p1643
aVgoogle-tag-manager
p1644
aVdigitalocean
p1645
aVonesignal
p1646
aVgoogle-analytics
p1647
asg62
(lp1648
ssS'tawipay'
p1649
(dp1650
g3
(dp1651
S'Acquisitions'
p1652
S'0'
p1653
sS'Growth score'
p1654
S'179'
p1655
sS'Mindshare score'
p1656
S'172'
p1657
sS'Employees'
p1658
S'11'
p1659
sS'Last funding'
p1660
S'10 months ago'
p1661
sS'Founded'
p1662
S'2013'
p1663
sS'Location'
p1664
S'Lausanne'
p1665
sS'Total funding'
p1666
S'$420K'
p1667
sS'Stage'
p1668
S'Pre-Series A'
p1669
ssg23
(lp1670
Viubenda
p1671
aVmixpanel
p1672
aVtextmaster
p1673
aVangellist-jobs
p1674
aVwistia
p1675
aVadespresso
p1676
aVtypeform
p1677
aVxero
p1678
aVmysql
p1679
aVapache-web-server
p1680
aVsiftery
p1681
aVphp
p1682
aVchatra
p1683
aVteamsnippets
p1684
aVwordpress
p1685
aVopentest
p1686
aVgoogle-apps-for-work
p1687
aVlinkedin-recruiter
p1688
aVpodio
p1689
aVuserbrain
p1690
aVjavascript
p1691
aVadroll
p1692
aVaddthis
p1693
aVinvision
p1694
aVamazon-ec2
p1695
aVsegment
p1696
aVmention
p1697
aVhotjar
p1698
aVbootstrap
p1699
aVusabilityhub
p1700
aVgoogle-tag-manager
p1701
aVgoogle-analytics
p1702
aVgroove
p1703
asg62
(lp1704
S'B2C'
p1705
aS'Finance'
p1706
aS'Payments'
p1707
assS'salesloft'
p1708
(dp1709
g3
(dp1710
S'Acquisitions'
p1711
S'0'
p1712
sS'Growth score'
p1713
S'686'
p1714
sS'Mindshare score'
p1715
S'525'
p1716
sS'Employees'
p1717
S'116'
p1718
sS'Last funding'
p1719
S'a year ago'
p1720
sS'Founded'
p1721
S'2011'
p1722
sS'Location'
p1723
S'Atlanta'
p1724
sS'Total funding'
p1725
S'$10M'
p1726
sS'Stage'
p1727
S'Series A'
p1728
ssg23
(lp1729
Vinfluitive
p1730
aVsiftery
p1731
aVuservoice
p1732
aVcustomerio
p1733
aVadobe-typekit
p1734
aVwistia
p1735
aVmodernizr
p1736
aVexecvision
p1737
aViconixx
p1738
aVcallrail
p1739
aVjoinme
p1740
aVamazon-route-53
p1741
aVsalesforce-marketing-cloud
p1742
aVrecruiterbox
p1743
aVcaptora
p1744
aVamazon-ec2
p1745
aVmandrill
p1746
aVleandata
p1747
aVsendgrid
p1748
aVwideangle
p1749
aVwordpress
p1750
aVsurveymonkey
p1751
aVcalendly
p1752
aVintercom
p1753
aV15five
p1754
aVfullstory
p1755
aVsalesforce-pardot
p1756
aVgoogle-apps-for-work
p1757
aVsalesforceiq-crm
p1758
aVcomodo-ssl
p1759
aVhello-bar
p1760
aVoptimizely
p1761
aVadroll
p1762
aVmailchimp
p1763
aVsalesforce-sales-cloud
p1764
aVzopim
p1765
aVdisqus
p1766
aVrigor
p1767
aVstripe
p1768
aVsigstr
p1769
aVdiscoverorg
p1770
aVphp
p1771
aVsegment
p1772
aVlinkedin-sales-navigator
p1773
aVjquery
p1774
aVterminus
p1775
aVslack
p1776
aVnginx
p1777
aVtrello
p1778
aVenom-domain-registration
p1779
aVexpensify
p1780
aVprofitwell
p1781
aVinsideview
p1782
aVzendesk
p1783
aVbizible
p1784
aVuseriq
p1785
aVgoogle-analytics
p1786
aVrightsignature
p1787
asg62
(lp1788
S'B2B'
p1789
aS'Lead Generation'
p1790
aS'SaaS'
p1791
aS'Enterprise Software'
p1792
aS'Finance'
p1793
aS'Marketing'
p1794
assS'emotient'
p1795
(dp1796
g3
(dp1797
S'Acquisitions'
p1798
S'0'
p1799
sS'Growth score'
p1800
S'151'
p1801
sS'Mindshare score'
p1802
S'136'
p1803
sS'Employees'
p1804
S'26'
p1805
sS'Last funding'
p1806
S'3 years ago'
p1807
sS'Founded'
p1808
S'2012'
p1809
sS'Location'
p1810
S'San Diego'
p1811
sS'Total funding'
p1812
S'$6M'
p1813
sS'Stage'
p1814
S'Acquired'
p1815
ssg23
(lp1816
Vgoogle-apps-for-work
p1817
aVatlassian-jira
p1818
aVlinkedin-recruiter
p1819
aVgodaddy-domain-registration
p1820
aVmandrill
p1821
aVgoogle-fonts
p1822
aVoptimizely
p1823
aVsiftery
p1824
aVadroll
p1825
aVmailchimp
p1826
aVsalesforce-sales-cloud
p1827
aVdocusign
p1828
aVgithub
p1829
aVwordpress
p1830
aVamazon-ses
p1831
aVcitrix-gotomeeting
p1832
aVintuit-quickbooks
p1833
aVamazon-route-53
p1834
aVamazon-ec2
p1835
aVapache-web-server
p1836
asg62
(lp1837
S'B2B'
p1838
aS'Advertising'
p1839
aS'Marketing'
p1840
aS'Professional Services'
p1841
assS'krossover'
p1842
(dp1843
g3
(dp1844
S'Acquisitions'
p1845
S'0'
p1846
sS'Growth score'
p1847
S'127'
p1848
sS'Mindshare score'
p1849
S'102'
p1850
sS'Employees'
p1851
S'239'
p1852
sS'Last funding'
p1853
S'5 months ago'
p1854
sS'Founded'
p1855
S'2009'
p1856
sS'Location'
p1857
S'New York'
p1858
sS'Total funding'
p1859
S'$28M'
p1860
sS'Stage'
p1861
S'Series B'
p1862
ssg23
(lp1863
Vfreshbooks
p1864
aVatlassian-bitbucket
p1865
aVtrello
p1866
aVangellist-jobs
p1867
aVadobe-typekit
p1868
aVxcode
p1869
aVangular-material
p1870
aVtrustpilot
p1871
aVsublime-text
p1872
aVgoogle-drive
p1873
aVtypeform
p1874
aVperiscope
p1875
aVangularjs
p1876
aVmysql
p1877
aVmixpanel
p1878
aVamazon-route-53
p1879
aVzenefits
p1880
aVhipchat
p1881
aVphp
p1882
aVcloseio
p1883
aVmarketo
p1884
aVgit
p1885
aVtellapart
p1886
aVmailjet
p1887
aVsalesforce-deskcom
p1888
aVsiftery
p1889
aVvagrant
p1890
aVwufoo
p1891
aVgeotrust-ssl
p1892
aVsplash
p1893
aVwordpress
p1894
aVhootsuite
p1895
aVsprout-social
p1896
aVgoogle-apps-for-work
p1897
aVmongodb
p1898
aVjavascript
p1899
aVadroll
p1900
aVmailchimp
p1901
aVnginx
p1902
aVapache-http-server
p1903
aVenom-domain-registration
p1904
aVhtml5
p1905
aVatom
p1906
aVgrunt
p1907
aVsegment
p1908
aVgoogle-analytics
p1909
aVappcues
p1910
aVgithub
p1911
aVzapier
p1912
aVbootstrap
p1913
aVgitprime
p1914
aVgusto
p1915
aVdocker
p1916
asg62
(lp1917
S'B2B'
p1918
aS'B2C'
p1919
aS'Analytics'
p1920
aS'Entertainment'
p1921
aS'Gaming'
p1922
aS'Mobile'
p1923
assS'welab'
p1924
(dp1925
g3
(dp1926
S'Acquisitions'
p1927
S'0'
p1928
sS'Growth score'
p1929
S'131'
p1930
sS'Mindshare score'
p1931
S'70'
p1932
sS'Employees'
p1933
S'50'
p1934
sS'Last funding'
p1935
S'2 years ago'
p1936
sS'Founded'
p1937
S'2013'
p1938
sS'Location'
p1939
S'Sheung Wan'
p1940
sS'Total funding'
p1941
S'$20M'
p1942
sS'Stage'
p1943
S'Series A'
p1944
ssg23
(lp1945
Vbootstrap
p1946
aVtrello
p1947
aVsiftery
p1948
aVamazon-rds
p1949
aVgoogle-apps-for-work
p1950
aVcowboy-web-server
p1951
aVhaml
p1952
aVdnsimple
p1953
aVmicrosoft-outlook
p1954
aVgit
p1955
aVcircleci
p1956
aVruby-on-rails
p1957
aVlucky-orange
p1958
aVcoffeescript
p1959
aVheroku
p1960
aVwordpress
p1961
aVmongodb
p1962
aVcloudflare
p1963
aVgoogle-adwords
p1964
aVmongolab
p1965
aVintercom
p1966
aVoptimizely
p1967
aVreactjs
p1968
aVadroll
p1969
aVmailchimp
p1970
aVinvision
p1971
aVsessioncam
p1972
aVtwilio
p1973
aVamazon-ec2
p1974
aVruby
p1975
aVgoogle-analytics
p1976
aVjquery
p1977
aVnew-relic
p1978
aVgithub
p1979
aVpostgresql
p1980
aVslack
p1981
aVsass
p1982
aVnginx
p1983
aVmandrill
p1984
aVraygun
p1985
aVbing-ads
p1986
aVamazon-s3
p1987
asg62
(lp1988
S'B2B'
p1989
aS'Analytics'
p1990
aS'Banking'
p1991
aS'Finance'
p1992
assS'health-sherpa'
p1993
(dp1994
g3
(dp1995
S'Acquisitions'
p1996
S'0'
p1997
sS'Growth score'
p1998
S'-142'
p1999
sS'Mindshare score'
p2000
S'-142'
p2001
sS'Employees'
p2002
g12
sS'Last funding'
p2003
g14
sS'Founded'
p2004
S'2012'
p2005
sS'Location'
p2006
S'Bay Area'
p2007
sS'Total funding'
p2008
S'Undisclosed'
p2009
sS'Stage'
p2010
S'Pre-Series A'
p2011
ssg23
(lp2012
Vsentry
p2013
aVmixpanel
p2014
aVunderscorejs
p2015
aVfreshdesk
p2016
aVadobe-typekit
p2017
aVruby-on-rails
p2018
aVgoogle-apps-for-work
p2019
aVsublime-text
p2020
aVbackbonejs
p2021
aVfacebook-ads
p2022
aVinspectlet
p2023
aVbasecamp
p2024
aVzenefits
p2025
aVorrick
p2026
aVsiftery
p2027
aVindinero
p2028
aVmushi-labs
p2029
aVamazon-cloudfront
p2030
aVtalkdesk
p2031
aVmandrill
p2032
aVgoogle-fonts
p2033
aVsendgrid
p2034
aVeat-club
p2035
aVredis
p2036
aVgoogle-hangouts
p2037
aVheroku
p2038
aVtwitter-ads
p2039
aVwordpress
p2040
aVintuit-quickbooks
p2041
aVgodaddy-domain-registration
p2042
aVmapbox
p2043
aVravenjs
p2044
aVgodaddy-dns
p2045
aVscripted
p2046
aVangellist-jobs
p2047
aVgoogle-adwords
p2048
aVsalesforceiq-crm
p2049
aVnew-relic
p2050
aVintercom
p2051
aVoptimizely
p2052
aVpaypal
p2053
aVadroll
p2054
aVmailchimp
p2055
aVsalesforce-sales-cloud
p2056
aVinvision
p2057
aVhired
p2058
aVstripe
p2059
aVheap
p2060
aVdropbox
p2061
aVamazon-ec2
p2062
aVruby
p2063
aVgoogle-analytics
p2064
aVbox
p2065
aVchef
p2066
aVgoogle-drive
p2067
aVgithub
p2068
aVpostgresql
p2069
aVslack
p2070
aVcowboy-web-server
p2071
aVbootstrap
p2072
aVgusto
p2073
aVlinkedin-ads
p2074
aVgravatar
p2075
aVgoogle-tag-manager
p2076
aVbing-ads
p2077
aVelasticsearch
p2078
aVamazon-s3
p2079
aVmicrosoft-office-365
p2080
aVbugcrowd
p2081
asg62
(lp2082
S'B2C'
p2083
aS'Finance'
p2084
aS'Healthcare'
p2085
aS'Insurance'
p2086
assS'sociable-labs'
p2087
(dp2088
g3
(dp2089
S'Acquisitions'
p2090
S'0'
p2091
sS'Growth score'
p2092
S'-69'
p2093
sS'Mindshare score'
p2094
S'-55'
p2095
sS'Employees'
p2096
S'25'
p2097
sS'Last funding'
p2098
S'5 years ago'
p2099
sS'Founded'
p2100
S'2014'
p2101
sS'Location'
p2102
S'Bay Area'
p2103
sS'Total funding'
p2104
S'$7M'
p2105
sS'Stage'
p2106
S'Series B'
p2107
ssg23
(lp2108
Vsalesloft
p2109
aVangellist-jobs
p2110
aVdocusign
p2111
aVjobscore
p2112
aVskype
p2113
aVamazon-route-53
p2114
aVsalesforce-marketing-cloud
p2115
aVamazon-ec2
p2116
aVgoogle-fonts
p2117
aVsiftery
p2118
aVgoogle-hangouts
p2119
aVeshares
p2120
aVasana
p2121
aVhubspot-marketing-platform
p2122
aVgoogle-apps-for-work
p2123
aVatlassian-jira
p2124
aVlinkedin-recruiter
p2125
aVuberconference
p2126
aVadroll
p2127
aVsalesforce-sales-cloud
p2128
aVexpensify
p2129
aVcitrix-gotomeeting
p2130
aVdropbox
p2131
aVdisqus
p2132
aVsegment
p2133
aVlinkedin-sales-navigator
p2134
aVtoutapp
p2135
aVjquery
p2136
aVgithub
p2137
aVslack
p2138
aVlooker
p2139
aVversaccounts
p2140
aVbriteverify
p2141
aVsmarthires
p2142
aVgoogle-analytics
p2143
aVmessageone
p2144
asg62
(lp2145
S'B2B'
p2146
aS'E-Commerce'
p2147
assS'xactly'
p2148
(dp2149
g3
(dp2150
S'Acquisitions'
p2151
S'1'
p2152
sS'Growth score'
p2153
S'405'
p2154
sS'Mindshare score'
p2155
S'145'
p2156
sS'Employees'
p2157
S'468'
p2158
sS'Last funding'
p2159
S'4 years ago'
p2160
sS'Founded'
p2161
S'2005'
p2162
sS'Location'
p2163
S'Bay Area'
p2164
sS'Total funding'
p2165
S'$74M'
p2166
sS'Stage'
p2167
S'Public'
p2168
ssg23
(lp2169
Vinfluitive
p2170
aVsiftery
p2171
aV6sense
p2172
aVadobe-typekit
p2173
aVreachforce
p2174
aVgainsight
p2175
aVnewton
p2176
aVsteelbrick
p2177
aVgoogle-drive
p2178
aVnetwork-solutions-domain-registration
p2179
aVasana
p2180
aVemc-networker
p2181
aVwavefront
p2182
aVmarketo
p2183
aVknowledgetree
p2184
aVworkday
p2185
aVgoogle-fonts
p2186
aVlinode
p2187
aVthe-roi-shop
p2188
aVgeotrust-ssl
p2189
aVwistia
p2190
aVmapr
p2191
aVdocusign
p2192
aVsnapengage
p2193
aVwordpress
p2194
aVsurveymonkey
p2195
aVhootsuite
p2196
aVion-interactive
p2197
aVinfer
p2198
aVdomo
p2199
aVcontentlaunch
p2200
aVbox
p2201
aVgoogle-apps-for-work
p2202
aVnew-relic
p2203
aVbuffer
p2204
aVhello-bar
p2205
aVadobe-flash
p2206
aVadroll
p2207
aVsalesforce-sales-cloud
p2208
aVsnaplogic
p2209
aVon24
p2210
aVsegment
p2211
aVsoapui
p2212
aVtoutapp
p2213
aVjquery
p2214
aVcommercialtribe
p2215
aVslack
p2216
aVnginx
p2217
aVactian-analytics
p2218
aVzoom
p2219
aVgoogle-tag-manager
p2220
aVadaptive-insights
p2221
aVneustar-ultradns
p2222
aVzendesk
p2223
aVgoogle-analytics
p2224
aVzuora
p2225
aVhighcharts
p2226
aVfull-circle-insights
p2227
asg62
(lp2228
S'B2B'
p2229
aS'Analytics'
p2230
aS'Enterprise Software'
p2231
aS'Human Resources Hr'
p2232
assS'vertamedia'
p2233
(dp2234
g3
(dp2235
S'Acquisitions'
p2236
S'0'
p2237
sS'Growth score'
p2238
S'176'
p2239
sS'Mindshare score'
p2240
S'176'
p2241
sS'Employees'
p2242
S'83'
p2243
sS'Last funding'
p2244
g14
sS'Founded'
p2245
S'2009'
p2246
sS'Location'
p2247
S'New York'
p2248
sS'Total funding'
p2249
S'Undisclosed'
p2250
sS'Stage'
p2251
S'No Known Funding'
p2252
ssg23
(lp2253
Vfreshdesk
p2254
aVdocusign
p2255
aVpubnub
p2256
aVaddtoany
p2257
aVgoogle-fonts
p2258
aVsiftery
p2259
aVgeotrust-ssl
p2260
aVhubspot-marketing-platform
p2261
aVsurveymonkey
p2262
aVsymantec-ssl
p2263
aVgoogle-apps-for-work
p2264
aVrecaptcha
p2265
aVadroll
p2266
aVamazon-ses
p2267
aVyandex-metrica
p2268
aVdropbox
p2269
aVdisqus
p2270
aVjquery
p2271
aVmicrosoft-outlook
p2272
aVslack
p2273
aVgoogle-maps
p2274
aVbootstrap
p2275
aVgoogle-tag-manager
p2276
aVzendesk
p2277
aVgoogle-analytics
p2278
asg62
(lp2279
S'B2B'
p2280
aS'Advertising'
p2281
aS'Marketing'
p2282
assS'iamnotbasic'
p2283
(dp2284
g3
(dp2285
S'Acquisitions'
p2286
S'0'
p2287
sS'Growth score'
p2288
S'-19'
p2289
sS'Mindshare score'
p2290
S'-19'
p2291
sS'Employees'
p2292
g12
sS'Last funding'
p2293
g14
sS'Founded'
p2294
g14
sS'Location'
p2295
S'Istanbul'
p2296
sS'Total funding'
p2297
S'Undisclosed'
p2298
sS'Stage'
p2299
S'No Known Funding'
p2300
ssg23
(lp2301
Vjquery
p2302
aVgoogle-apps-for-work
p2303
aVtrello
p2304
aVshopify
p2305
aVnginx
p2306
aVgoogle-fonts
p2307
aVsiftery
p2308
aVadroll
p2309
aVperfect-audience
p2310
aVmarin-audience-marketing-suite
p2311
aVmention
p2312
aVolark
p2313
aVsurveymonkey
p2314
aVoptinmonster
p2315
aVgodaddy-dns
p2316
aVgoogle-analytics
p2317
aVdigicert
p2318
aVslack
p2319
asg62
(lp2320
S'B2C'
p2321
aS'E-Commerce'
p2322
aS'Fashion'
p2323
aS'Retail'
p2324
assS'redbearded'
p2325
(dp2326
g23
(dp2327
ssS'boogie'
p2328
(dp2329
g3
(dp2330
S'Acquisitions'
p2331
S'0'
p2332
sS'Growth score'
p2333
S'-1'
p2334
sS'Mindshare score'
p2335
S'-1'
p2336
sS'Employees'
p2337
g12
sS'Last funding'
p2338
g14
sS'Founded'
p2339
S'2010'
p2340
sS'Location'
p2341
S'New York'
p2342
sS'Total funding'
p2343
S'Undisclosed'
p2344
sS'Stage'
p2345
S'No Known Funding'
p2346
ssg23
(lp2347
Vsiftery
p2348
aVleadin
p2349
aVflywheel
p2350
aVtypeform
p2351
aVgoogle-fonts
p2352
aVlinode
p2353
aVbluehost
p2354
aVsplash
p2355
aVhubspot-marketing-platform
p2356
aVwordpress
p2357
aVmoz
p2358
aVbuffer
p2359
aVadroll
p2360
aVpodio
p2361
aVstripe
p2362
aVdropbox
p2363
aVdisqus
p2364
aVspamexperts-incoming-filter
p2365
aVslack
p2366
aVifttt
p2367
aVzapier
p2368
aVhotjar
p2369
aVasana
p2370
aVsharethis
p2371
aVgravatar
p2372
aVgoogle-analytics
p2373
asg62
(lp2374
S'B2B'
p2375
aS'Marketing'
p2376
assS'wiziq'
p2377
(dp2378
g3
(dp2379
S'Acquisitions'
p2380
S'0'
p2381
sS'Growth score'
p2382
S'395'
p2383
sS'Mindshare score'
p2384
S'220'
p2385
sS'Employees'
p2386
S'275'
p2387
sS'Last funding'
p2388
S'4 years ago'
p2389
sS'Founded'
p2390
S'2007'
p2391
sS'Location'
p2392
S'Royalston'
p2393
sS'Total funding'
p2394
S'$4M'
p2395
sS'Stage'
p2396
S'Series B'
p2397
ssg23
(lp2398
Vunbounce
p2399
aVfreshdesk
p2400
aVdnn-evoq-engage
p2401
aVmodernizr
p2402
aVmicrosoft-office-365
p2403
aVyahoo-analytics-flurry
p2404
aVfeedbackify
p2405
aVact-on
p2406
aVvisual-website-optimizer
p2407
aVgoogle-fonts
p2408
aVsiftery
p2409
aVgeotrust-ssl
p2410
aVasana
p2411
aVsurveymonkey
p2412
aVgodaddy-domain-registration
p2413
aVcloudflare
p2414
aVbxslider
p2415
aVmoz
p2416
aVgoogle-apps-for-work
p2417
aVbuffer
p2418
aVhello-bar
p2419
aVadroll
p2420
aVnginx
p2421
aVflickr-api
p2422
aVamazon-ses
p2423
aVdropbox
p2424
aVjquery
p2425
aVgoogle-maps
p2426
aVleadlander
p2427
aVgoogle-tag-manager
p2428
aVgoogle-analytics
p2429
aVmarkmonitor-domain-management
p2430
asg62
(lp2431
S'B2B'
p2432
aS'B2C'
p2433
aS'Education'
p2434
aS'Mobile'
p2435
assS'usernl'
p2436
(dp2437
g23
(dp2438
ssS'springrole'
p2439
(dp2440
g3
(dp2441
S'Acquisitions'
p2442
S'0'
p2443
sS'Growth score'
p2444
S'-36'
p2445
sS'Mindshare score'
p2446
S'-21'
p2447
sS'Employees'
p2448
S'16'
p2449
sS'Last funding'
p2450
S'a year ago'
p2451
sS'Founded'
p2452
S'2014'
p2453
sS'Location'
p2454
S'Los Angeles'
p2455
sS'Total funding'
p2456
S'$250K'
p2457
sS'Stage'
p2458
S'Pre-Series A'
p2459
ssg23
(lp2460
Vsailthru
p2461
aVmysql
p2462
aVneo4j
p2463
aValgolia
p2464
aVapache-web-server
p2465
aVamazon-route-53
p2466
aVjava
p2467
aVamazon-sqs
p2468
aVsiftery
p2469
aVerrorception
p2470
aVgodaddy-domain-registration
p2471
aVintuit-quickbooks
p2472
aVoptimizely
p2473
aVgodaddy-ssl
p2474
aVgoogle-apps-for-work
p2475
aVatlassian-jira
p2476
aVlinkedin-recruiter
p2477
aVpython
p2478
aVcrazyegg
p2479
aVadroll
p2480
aVamazon-cloudsearch
p2481
aVtrinet-ambrose
p2482
aVexpensify
p2483
aVapache-http-server
p2484
aVamazon-ses
p2485
aVdropbox
p2486
aVamazon-ec2
p2487
aVtoutapp
p2488
aVjquery
p2489
aVnew-relic
p2490
aVgithub
p2491
aVslack
p2492
aVmailgun
p2493
aVgoogle-maps
p2494
aVbootstrap
p2495
aVgoogle-tag-manager
p2496
aVamazon-simple-workflow-service-swf
p2497
aVamazon-dynamodb
p2498
aVzendesk
p2499
aVgoogle-analytics
p2500
asg62
(lp2501
S'B2B'
p2502
aS'Career / Job Search'
p2503
aS'Human Resources Hr'
p2504
assS'seozeo'
p2505
(dp2506
g3
(dp2507
S'Acquisitions'
p2508
S'0'
p2509
sS'Growth score'
p2510
S'93'
p2511
sS'Mindshare score'
p2512
S'93'
p2513
sS'Employees'
p2514
g12
sS'Last funding'
p2515
g14
sS'Founded'
p2516
S'2010'
p2517
sS'Location'
p2518
S'Ankara'
p2519
sS'Total funding'
p2520
S'Undisclosed'
p2521
sS'Stage'
p2522
S'No Known Funding'
p2523
ssg23
(lp2524
Vsumome
p2525
aVgoogle-drive
p2526
aVtalentlms
p2527
aVmailjet
p2528
aVgoogle-fonts
p2529
aVsiftery
p2530
aVolark
p2531
aVasana
p2532
aVgoogle-domains
p2533
aVcloudflare
p2534
aVgoogle-apps-for-work
p2535
aVbuffer
p2536
aVoptimizely
p2537
aVadobe-flash
p2538
aVadroll
p2539
aVnginx
p2540
aVfirebase
p2541
aVsearchmetrics
p2542
aVsegment
p2543
aVslack
p2544
aVzapier
p2545
aVgoogle-analytics
p2546
asg62
(lp2547
S'Marketing'
p2548
assS'peak-seven'
p2549
(dp2550
g3
(dp2551
S'Acquisitions'
p2552
S'0'
p2553
sS'Growth score'
p2554
S'29'
p2555
sS'Mindshare score'
p2556
S'29'
p2557
sS'Employees'
p2558
g12
sS'Last funding'
p2559
g14
sS'Founded'
p2560
S'1999'
p2561
sS'Location'
p2562
S'Miami'
p2563
sS'Total funding'
p2564
S'Undisclosed'
p2565
sS'Stage'
p2566
S'No Known Funding'
p2567
ssg23
(lp2568
Vtwilio
p2569
aVfilemaker
p2570
aVboomerang-for-gmail
p2571
aVsublime-text
p2572
aVbasecamp
p2573
aVbeanstalk
p2574
aVzarget
p2575
aVmysql
p2576
aVziprecruiter
p2577
aValgolia
p2578
aVpingdom
p2579
aVvirtualbox
p2580
aVvisual-website-optimizer
p2581
aVphp
p2582
aVgoogle-fonts
p2583
aVharvest
p2584
aVsiftery
p2585
aVwordpress
p2586
aVsurveymonkey
p2587
aVcomodo-ssl
p2588
aVadobe-esign-services-formerly-echosign
p2589
aVcloudflare
p2590
aVprezi
p2591
aVmoz
p2592
aVgoogle-apps-for-work
p2593
aVlinkedin-recruiter
p2594
aVbuffer
p2595
aVoptimizely
p2596
aVpaypal
p2597
aVadroll
p2598
aVmailchimp
p2599
aVjoinme
p2600
aVnginx
p2601
aVdisqus
p2602
aVstripe
p2603
aVamazon-ses
p2604
aVdropbox
p2605
aVamazon-ec2
p2606
aVsegment
p2607
aVjquery
p2608
aVslack
p2609
aVgoogle-maps
p2610
aVhotjar
p2611
aVatlassian-bitbucket
p2612
aVintuit-quickbooks
p2613
aVdigitalocean
p2614
aVzopim
p2615
aVgoogle-analytics
p2616
asg62
(lp2617
ssS'hykso'
p2618
(dp2619
g3
(dp2620
S'Acquisitions'
p2621
S'0'
p2622
sS'Growth score'
p2623
S'195'
p2624
sS'Mindshare score'
p2625
S'169'
p2626
sS'Employees'
p2627
S'10 '
p2628
sS'Last funding'
p2629
S'6 months ago'
p2630
sS'Founded'
p2631
S'2013'
p2632
sS'Location'
p2633
S'Quebec'
p2634
sS'Total funding'
p2635
S'$120K'
p2636
sS'Stage'
p2637
S'Pre-Series A'
p2638
ssg23
(lp2639
Vdocusign
p2640
aVsublime-text
p2641
aVsumome
p2642
aVgoogle-drive
p2643
aVgit
p2644
aVevernote
p2645
aVgoogle-fonts
p2646
aVsiftery
p2647
aVinterstate-analytics
p2648
aVolark
p2649
aVasana
p2650
aVwordpress
p2651
aVsurveymonkey
p2652
aVcomodo-ssl
p2653
aVgodaddy-dns
p2654
aVcloudflare
p2655
aVgoogle-apps-for-work
p2656
aVoptimizely
p2657
aVadobe-flash
p2658
aVadroll
p2659
aVmailchimp
p2660
aVnginx
p2661
aVexpensify
p2662
aVslack
p2663
aVhotjar
p2664
aVomnigraffle
p2665
aVgravatar
p2666
aVgoogle-analytics
p2667
asg62
(lp2668
S'B2B'
p2669
aS'B2C'
p2670
aS'Entertainment'
p2671
aS'Fitness and Wellness'
p2672
aS'Hardware'
p2673
aS'Internet of Things'
p2674
aS'Media'
p2675
assS'nectar-desk'
p2676
(dp2677
g23
(dp2678
ssS'le-ide-marketing-digital'
p2679
(dp2680
g23
(dp2681
ssS'clearbit'
p2682
(dp2683
g3
(dp2684
S'Acquisitions'
p2685
S'0'
p2686
sS'Growth score'
p2687
S'605'
p2688
sS'Mindshare score'
p2689
S'581'
p2690
sS'Employees'
p2691
S'11'
p2692
sS'Last funding'
p2693
S'2 years ago'
p2694
sS'Founded'
p2695
S'2014'
p2696
sS'Location'
p2697
S'Bay Area'
p2698
sS'Total funding'
p2699
S'$2M'
p2700
sS'Stage'
p2701
S'Pre-Series A'
p2702
ssg23
(lp2703
Vunbounce
p2704
aVsiftery
p2705
aVtrello
p2706
aVangellist-jobs
p2707
aVsumo-logic
p2708
aVamazon-rds
p2709
aVhelp-scout
p2710
aVsublime-text
p2711
aVchartmogul
p2712
aVoptinmonster
p2713
aVmixpanel
p2714
aVamazon-route-53
p2715
aVpingdom
p2716
aVdnsimple
p2717
aVcloseio
p2718
aVcircleci
p2719
aVamazon-redshift
p2720
aVgoogle-fonts
p2721
aVruby
p2722
aVkissmetrics
p2723
aVadobe-typekit
p2724
aVredis
p2725
aVsinatra
p2726
aVheroku
p2727
aVcomodo-ssl
p2728
aVopentest
p2729
aVamazon-elasticache
p2730
aVsidekiq-pro
p2731
aVrunscope
p2732
aVgoogle-apps-for-work
p2733
aVjoinme
p2734
aVdigitalocean
p2735
aVfastly
p2736
aVrecaptcha
p2737
aVadroll
p2738
aVcodeship
p2739
aVnginx
p2740
aVpersistiq
p2741
aVenom-domain-registration
p2742
aVcoreos
p2743
aVcustomerio
p2744
aVpagerduty
p2745
aVamazon-ec2
p2746
aVsegment
p2747
aVamazon-s3
p2748
aVslack
p2749
aVjquery
p2750
aVnew-relic
p2751
aVperfect-audience
p2752
aVgithub
p2753
aVpostgresql
p2754
aVgoogle-analytics
p2755
aVmailgun
p2756
aVlibrato
p2757
aVsentry
p2758
aVelasticsearch
p2759
aVamazon-dynamodb
p2760
aVdocker
p2761
asg62
(lp2762
S'B2B'
p2763
aS'SaaS'
p2764
aS'Enterprise Software'
p2765
aS'Marketing'
p2766
aS'Software Development'
p2767
assS'automated-pet-care-products'
p2768
(dp2769
g3
(dp2770
S'Acquisitions'
p2771
S'0'
p2772
sS'Growth score'
p2773
S'-310'
p2774
sS'Mindshare score'
p2775
S'-310'
p2776
sS'Employees'
p2777
g12
sS'Last funding'
p2778
g14
sS'Founded'
p2779
g14
sS'Location'
p2780
g12
sS'Total funding'
p2781
S'Undisclosed'
p2782
sS'Stage'
p2783
S'No Known Funding'
p2784
ssg23
(lp2785
Vambassador
p2786
aVyotpo
p2787
aVmodernizr
p2788
aVmandrill
p2789
aVgoogle-maps
p2790
aVsiftery
p2791
aVhotjar
p2792
aVadobe-flash
p2793
aVadroll
p2794
aVyahoo-analytics-flurry
p2795
aVgoogle-drive
p2796
aVgoogle-fonts
p2797
aVgoogle-tag-manager
p2798
aVwordpress
p2799
aVbxslider
p2800
aVhupso
p2801
aVaugur
p2802
aVgoogle-analytics
p2803
aVapache-web-server
p2804
aVgodaddy-ssl
p2805
asg62
(lp2806
ssS'tripping'
p2807
(dp2808
g3
(dp2809
S'Acquisitions'
p2810
S'0'
p2811
sS'Growth score'
p2812
S'268'
p2813
sS'Mindshare score'
p2814
S'172'
p2815
sS'Employees'
p2816
S'50'
p2817
sS'Last funding'
p2818
S'a year ago'
p2819
sS'Founded'
p2820
S'2010'
p2821
sS'Location'
p2822
S'Bay Area'
p2823
sS'Total funding'
p2824
S'$17M'
p2825
sS'Stage'
p2826
S'Series B'
p2827
ssg23
(lp2828
Vtrello
p2829
aVangellist-jobs
p2830
aVsteelhouse
p2831
aVtrustpilot
p2832
aVhelp-scout
p2833
aVchef
p2834
aVdropbox-paper
p2835
aVmysql
p2836
aVzenefits
p2837
aVchartio
p2838
aVdatadog
p2839
aVdisqus
p2840
aVevernote
p2841
aVruby-on-rails
p2842
aVdns-made-easy
p2843
aVsendgrid
p2844
aVsiftery
p2845
aVredis
p2846
aVgoogle-tag-manager
p2847
aVpython
p2848
aVeshares
p2849
aVzend-framework
p2850
aVcriteo
p2851
aVcloudflare
p2852
aVgodaddy-ssl
p2853
aVgoogle-apps-for-work
p2854
aVreactjs
p2855
aVbuffer
p2856
aVoptimizely
p2857
aVjavascript
p2858
aVadroll
p2859
aVgoogle-doubleclick
p2860
aVinvision
p2861
aVthreads
p2862
aVbraintree-payments
p2863
aVdropbox
p2864
aVamazon-ec2
p2865
aVruby
p2866
aVgithub
p2867
aVslack
p2868
aVnginx
p2869
aVgoogle-maps
p2870
aVbootstrap
p2871
aVzoom
p2872
aVrabbitmq
p2873
aVwaffleio
p2874
aVtealium
p2875
aVelasticsearch
p2876
aVenom-domain-registration
p2877
aVgoogle-analytics
p2878
asg62
(lp2879
S'B2C'
p2880
aS'Marketplace'
p2881
aS'E-Commerce'
p2882
aS'Hospitality'
p2883
aS'Real Estate'
p2884
aS'Travel'
p2885
assS'rozwizujemy'
p2886
(dp2887
g23
(dp2888
ssS'sellsy'
p2889
(dp2890
g3
(dp2891
S'Acquisitions'
p2892
S'0'
p2893
sS'Growth score'
p2894
S'344'
p2895
sS'Mindshare score'
p2896
S'308'
p2897
sS'Employees'
p2898
S'31'
p2899
sS'Last funding'
p2900
S'3 years ago'
p2901
sS'Founded'
p2902
S'2009'
p2903
sS'Location'
p2904
S'La Rochelle'
p2905
sS'Total funding'
p2906
S'Undisclosed'
p2907
sS'Stage'
p2908
S'Series A'
p2909
ssg23
(lp2910
Vsiftery
p2911
aValgolia-docsearch
p2912
aVnodejs
p2913
aVcitrix-gotowebinar
p2914
aVbackbonejs
p2915
aVgoogle-drive
p2916
aValgolia
p2917
aVphp
p2918
aVapache-cordova
p2919
aVgearman
p2920
aVsendgrid
p2921
aVliveplan
p2922
aVgandinet-domain-registration
p2923
aVsociallymap
p2924
aVoptimonk
p2925
aVgoogle-apps-for-work
p2926
aVpaypal
p2927
aVjoinme
p2928
aVadobe-flash
p2929
aVadroll
p2930
aVmention
p2931
aVgandinet-hosting
p2932
aVdropbox
p2933
aVmariadb
p2934
aVsegment
p2935
aVnew-relic
p2936
aVslack
p2937
aVgusto
p2938
aVgoogle-analytics
p2939
aVstripe
p2940
asg62
(lp2941
S'B2B'
p2942
aS'SaaS'
p2943
aS'Enterprise Software'
p2944
assS'teamgantt'
p2945
(dp2946
g3
(dp2947
S'Acquisitions'
p2948
S'0'
p2949
sS'Growth score'
p2950
S'224'
p2951
sS'Mindshare score'
p2952
S'224'
p2953
sS'Employees'
p2954
g12
sS'Last funding'
p2955
g14
sS'Founded'
p2956
S'2009'
p2957
sS'Location'
p2958
S'Baltimore'
p2959
sS'Total funding'
p2960
S'Undisclosed'
p2961
sS'Stage'
p2962
S'No Known Funding'
p2963
ssg23
(lp2964
Vrackspace-hosting
p2965
aVbraintree-payments
p2966
aVangellist-jobs
p2967
aVadobe-typekit
p2968
aVwistia
p2969
aVgrasshopper
p2970
aVhelp-scout
p2971
aVsumome
p2972
aVtypepad
p2973
aVwebengage
p2974
aVapache-web-server
p2975
aVevernote
p2976
aVsharethis
p2977
aVsendgrid
p2978
aVsiftery
p2979
aVgeotrust-ssl
p2980
aVwordpress
p2981
aVsatismeter
p2982
aVmoz
p2983
aVgoogle-apps-for-work
p2984
aVbuffer
p2985
aVintercom
p2986
aVrecaptcha
p2987
aVadroll
p2988
aVcustomerio
p2989
aVdropbox
p2990
aVsegment
p2991
aVappnexus
p2992
aVjquery
p2993
aVnew-relic
p2994
aVoptimizely
p2995
aVslack
p2996
aVzapier
p2997
aVhotjar
p2998
aVgoogle-tag-manager
p2999
aVamplitude
p3000
aVzendesk
p3001
aVgoogle-analytics
p3002
aVkissmetrics
p3003
asg62
(lp3004
S'B2B'
p3005
aS'Human Resources Hr'
p3006
assS'bcgdv'
p3007
(dp3008
g3
(dp3009
S'Acquisitions'
p3010
S'1'
p3011
sS'Growth score'
p3012
S'325'
p3013
sS'Mindshare score'
p3014
S'325'
p3015
sS'Employees'
p3016
S'469'
p3017
sS'Last funding'
p3018
g14
sS'Founded'
p3019
S'2013'
p3020
sS'Location'
p3021
S'Los Angeles'
p3022
sS'Total funding'
p3023
S'Undisclosed'
p3024
sS'Stage'
p3025
S'No Known Funding'
p3026
ssg23
(lp3027
Vsiftery
p3028
aVgoogle-apps-for-work
p3029
aVapache-http-server
p3030
aVangellist-jobs
p3031
aVmimecast-gateway
p3032
aVsegment
p3033
aVdoorbell
p3034
aVadroll
p3035
aVnginx
p3036
aVcatalyze
p3037
aVgodaddy-ssl
p3038
aVamazon-route-53
p3039
aVamazon-ec2
p3040
aVsalesforce-marketing-cloud
p3041
aVgoogle-analytics
p3042
aVappnexus
p3043
asg62
(lp3044
S'B2B'
p3045
assS'providertrust'
p3046
(dp3047
g3
(dp3048
S'Acquisitions'
p3049
S'0'
p3050
sS'Growth score'
p3051
S'82'
p3052
sS'Mindshare score'
p3053
S'62'
p3054
sS'Employees'
p3055
S'30'
p3056
sS'Last funding'
p3057
S'4 years ago'
p3058
sS'Founded'
p3059
S'2010'
p3060
sS'Location'
p3061
S'Nashville'
p3062
sS'Total funding'
p3063
S'$2M'
p3064
sS'Stage'
p3065
S'Series B'
p3066
ssg23
(lp3067
Vleadin
p3068
aVadobe-typekit
p3069
aVhubspot-crm
p3070
aVamazon-route-53
p3071
aVapache-web-server
p3072
aVgoogle-fonts
p3073
aVsiftery
p3074
aVgeotrust-ssl
p3075
aVhubspot-marketing-platform
p3076
aVsurveymonkey
p3077
aVmoz
p3078
aVgoogle-apps-for-work
p3079
aVadroll
p3080
aVheap
p3081
aVamazon-ses
p3082
aVdropbox
p3083
aVamazon-ec2
p3084
aVjquery
p3085
aVslack
p3086
aVifttt
p3087
aVzapier
p3088
aVzencoder
p3089
aVgoogle-analytics
p3090
asg62
(lp3091
S'B2B'
p3092
aS'Healthcare'
p3093
assS'airbrake'
p3094
(dp3095
g3
(dp3096
S'Acquisitions'
p3097
S'0'
p3098
sS'Growth score'
p3099
S'-1'
p3100
sS'Mindshare score'
p3101
S'-1'
p3102
sS'Employees'
p3103
g12
sS'Last funding'
p3104
g14
sS'Founded'
p3105
g14
sS'Location'
p3106
S'Bay Area'
p3107
sS'Total funding'
p3108
S'Undisclosed'
p3109
sS'Stage'
p3110
S'No Known Funding'
p3111
ssg23
(lp3112
Vunbounce
p3113
aVmixpanel
p3114
aVangellist-jobs
p3115
aVgandimail
p3116
aVsumome
p3117
aVsalesforce-marketing-cloud
p3118
aVvisual-website-optimizer
p3119
aVgoogle-fonts
p3120
aVdns-made-easy
p3121
aVkissmetrics
p3122
aVsiftery
p3123
aVgeotrust-ssl
p3124
aVwordpress
p3125
aVcomodo-ssl
p3126
aVinspectlet
p3127
aVmoz
p3128
aVgoogle-apps-for-work
p3129
aVintercom
p3130
aVadroll
p3131
aVstripe
p3132
aVaws-elastic-load-balancing
p3133
aVamazon-ec2
p3134
aVsegment
p3135
aVdnsimple
p3136
aVjquery
p3137
aVnew-relic
p3138
aVperfect-audience
p3139
aVslack
p3140
aVtender-support
p3141
aVgoogle-maps
p3142
aVzapier
p3143
aVbootstrap
p3144
aVgoogle-tag-manager
p3145
aVgravatar
p3146
aVgoogle-analytics
p3147
aVmarkmonitor-domain-management
p3148
asg62
(lp3149
S'B2B'
p3150
aS'SaaS'
p3151
aS'Enterprise Software'
p3152
aS'Internet of Things'
p3153
aS'Mobile'
p3154
aS'Software Development'
p3155
assS'wandera'
p3156
(dp3157
g3
(dp3158
S'Acquisitions'
p3159
S'0'
p3160
sS'Growth score'
p3161
S'305'
p3162
sS'Mindshare score'
p3163
S'161'
p3164
sS'Employees'
p3165
S'95'
p3166
sS'Last funding'
p3167
S'2 years ago'
p3168
sS'Founded'
p3169
S'2012'
p3170
sS'Location'
p3171
S'Bay Area'
p3172
sS'Total funding'
p3173
S'$22M'
p3174
sS'Stage'
p3175
S'Series B'
p3176
ssg23
(lp3177
Vadobe-typekit
p3178
aVamazon-route-53
p3179
aVmarketo
p3180
aVmandrill
p3181
aVgoogle-fonts
p3182
aVsiftery
p3183
aVgeotrust-ssl
p3184
aVwordpress
p3185
aVgodaddy-domain-registration
p3186
aVgoogle-apps-for-work
p3187
aVthelions
p3188
aVadroll
p3189
aVmailchimp
p3190
aVsalesforce-sales-cloud
p3191
aVnginx
p3192
aVapache-tomcat
p3193
aVruby
p3194
aVnew-relic
p3195
aVfinancialforce-financial-management
p3196
aVpostgresql
p3197
aVgoogle-maps
p3198
aVexpensify
p3199
aVzendesk
p3200
aVzopim
p3201
aVgoogle-analytics
p3202
asg62
(lp3203
S'B2B'
p3204
aS'Enterprise Software'
p3205
aS'Finance'
p3206
aS'Mobile'
p3207
aS'Security'
p3208
assS'matchnode'
p3209
(dp3210
g3
(dp3211
S'Acquisitions'
p3212
S'0'
p3213
sS'Growth score'
p3214
S'44'
p3215
sS'Mindshare score'
p3216
S'44'
p3217
sS'Employees'
p3218
S'5'
p3219
sS'Last funding'
p3220
g14
sS'Founded'
p3221
S'2012'
p3222
sS'Location'
p3223
S'Chicago'
p3224
sS'Total funding'
p3225
S'Undisclosed'
p3226
sS'Stage'
p3227
S'No Known Funding'
p3228
ssg23
(lp3229
Vunbounce
p3230
aVsiftery
p3231
aVmixpanel
p3232
aVgoogle-apps-for-work
p3233
aVfacebook-ads
p3234
aVjoinme
p3235
aVzenefits
p3236
aVmandrill
p3237
aVazalead
p3238
aVgoogle-tag-manager
p3239
aVbluehost
p3240
aVasana
p3241
aVhubspot-marketing-platform
p3242
aVzoho-crm
p3243
aVcomodo-ssl
p3244
aVintercom
p3245
aVwordpress
p3246
aVmoz
p3247
aVgoogle-adwords
p3248
aVtableau-software
p3249
aVbuffer
p3250
aVadroll
p3251
aVoptimizely
p3252
aVmapbox
p3253
aVzoho-invoice
p3254
aVmailchimp
p3255
aVnginx
p3256
aVstripe
p3257
aVdropbox
p3258
aVconstant-contact
p3259
aVslack
p3260
aVhittail
p3261
aVtrello
p3262
aVgetresponse
p3263
aVintuit-quickbooks
p3264
aVgoogle-analytics
p3265
asg62
(lp3266
S'B2B'
p3267
aS'Advertising'
p3268
aS'Marketing'
p3269
assS'payscape-advisors'
p3270
(dp3271
g3
(dp3272
S'Acquisitions'
p3273
S'1'
p3274
sS'Growth score'
p3275
S'91'
p3276
sS'Mindshare score'
p3277
S'91'
p3278
sS'Employees'
p3279
S'249'
p3280
sS'Last funding'
p3281
g14
sS'Founded'
p3282
S'2004'
p3283
sS'Location'
p3284
S'Atlanta'
p3285
sS'Total funding'
p3286
S'Undisclosed'
p3287
sS'Stage'
p3288
S'No Known Funding'
p3289
ssg23
(lp3290
Vfreshdesk
p3291
aVadobe-typekit
p3292
aVnetwork-solutions-hosting
p3293
aVfacebook-ads
p3294
aVgoogle-apps-for-work
p3295
aVamazon-route-53
p3296
aVapache-web-server
p3297
aVpaylocity
p3298
aVgoogle-fonts
p3299
aVcirrus-insight
p3300
aVsiftery
p3301
aVgeotrust-ssl
p3302
aVheatmap
p3303
aVhubspot-marketing-platform
p3304
aVsurveymonkey
p3305
aVwordpress
p3306
aVsalesforce-pardot
p3307
aVgoogle-adwords
p3308
aVbasecamp
p3309
aVuberconference
p3310
aVrecaptcha
p3311
aVjazz
p3312
aVadroll
p3313
aVsalesforce-marketing-cloud
p3314
aVmailchimp
p3315
aVsalesforce-sales-cloud
p3316
aVhubspot-crm
p3317
aVamazon-ec2
p3318
aVslack
p3319
aVbootstrap
p3320
aVintuit-quickbooks
p3321
aVzopim
p3322
aVgoogle-analytics
p3323
aVbillingorchard
p3324
asg62
(lp3325
S'B2B'
p3326
aS'Banking'
p3327
aS'E-Commerce'
p3328
aS'Finance'
p3329
aS'Payments'
p3330
assS'bonfire-1'
p3331
(dp3332
g23
(dp3333
ssS'planet-ride'
p3334
(dp3335
g3
(dp3336
S'Acquisitions'
p3337
S'0'
p3338
sS'Growth score'
p3339
S'185'
p3340
sS'Mindshare score'
p3341
S'185'
p3342
sS'Employees'
p3343
S'14'
p3344
sS'Last funding'
p3345
g14
sS'Founded'
p3346
S'2014'
p3347
sS'Location'
p3348
S'Paris'
p3349
sS'Total funding'
p3350
S'Undisclosed'
p3351
sS'Stage'
p3352
S'No Known Funding'
p3353
ssg23
(lp3354
Vbootstrap
p3355
aVmixpanel
p3356
aVsugarcrm
p3357
aVsublime-text
p3358
aVsumome
p3359
aVmysql
p3360
aVtrello
p3361
aVpingdom
p3362
aVgit
p3363
aVamazon-cloudfront
p3364
aVmandrill
p3365
aVsiftery
p3366
aVheroku
p3367
aVolark
p3368
aVwordpress
p3369
aVwunderlist
p3370
aVgoogle-apps-for-work
p3371
aVatlassian-jira
p3372
aVbuffer
p3373
aVoptimizely
p3374
aVadroll
p3375
aVmailchimp
p3376
aVnginx
p3377
aVsegment
p3378
aVjquery
p3379
aVnew-relic
p3380
aVslack
p3381
aVmailgun
p3382
aVzapier
p3383
aVatlassian-bitbucket
p3384
aVgoogle-tag-manager
p3385
aValphassl
p3386
aVphoenix-frameworks
p3387
aVgoogle-analytics
p3388
aVbrowserstack
p3389
asg62
(lp3390
S'B2C'
p3391
aS'Automotive'
p3392
aS'Travel'
p3393
assS'graphium-health'
p3394
(dp3395
g3
(dp3396
S'Acquisitions'
p3397
S'0'
p3398
sS'Growth score'
p3399
S'39'
p3400
sS'Mindshare score'
p3401
S'39'
p3402
sS'Employees'
p3403
S'6'
p3404
sS'Last funding'
p3405
g14
sS'Founded'
p3406
S'2012'
p3407
sS'Location'
p3408
S'Dallas'
p3409
sS'Total funding'
p3410
S'Undisclosed'
p3411
sS'Stage'
p3412
S'No Known Funding'
p3413
ssg23
(lp3414
Vsiftery
p3415
aVfreshdesk
p3416
aVadobe-typekit
p3417
aVscrollreveal
p3418
aVmicrosoft-office-365
p3419
aVihance
p3420
aVzenefits
p3421
aVmandrill
p3422
aVmicrosoft-iis
p3423
aVdocusign
p3424
aVolark
p3425
aVgodaddy-ssl
p3426
aVgoogle-apps-for-work
p3427
aVatlassian-jira
p3428
aVjoinme
p3429
aVadroll
p3430
aVsalesforce-sales-cloud
p3431
aVinvision
p3432
aVdropbox
p3433
aVamazon-ec2
p3434
aVinsidesalescom
p3435
aVjquery
p3436
aVgithub
p3437
aVmedia-temple-hosting
p3438
aVintuit-quickbooks
p3439
aVgoogle-analytics
p3440
asg62
(lp3441
S'B2B'
p3442
aS'Enterprise Software'
p3443
aS'Health It'
p3444
aS'Healthcare'
p3445
assS'sendbloom'
p3446
(dp3447
g3
(dp3448
S'Acquisitions'
p3449
S'0'
p3450
sS'Growth score'
p3451
S'0'
p3452
sS'Mindshare score'
p3453
S'0'
p3454
sS'Employees'
p3455
g12
sS'Last funding'
p3456
g14
sS'Founded'
p3457
g14
sS'Location'
p3458
g12
sS'Total funding'
p3459
S'Undisclosed'
p3460
sS'Stage'
p3461
S'No Known Funding'
p3462
ssg23
(lp3463
Vfreshbooks
p3464
aVsquarespace
p3465
aVtrello
p3466
aVheap
p3467
aVangellist-jobs
p3468
aVadobe-typekit
p3469
aVdocusign
p3470
aVhellosign
p3471
aVunderdogio
p3472
aVhelp-scout
p3473
aVchartmogul
p3474
aVdropbox
p3475
aVzenefits
p3476
aVkickbox
p3477
aVpivotal-tracker
p3478
aVhosted-graphite
p3479
aVgoogle-fonts
p3480
aVsendgrid
p3481
aVsiftery
p3482
aVcomodo-ssl
p3483
aVtoofr
p3484
aVgoogle-apps-for-work
p3485
aVjoinme
p3486
aVthelions
p3487
aVintercom
p3488
aVadroll
p3489
aVmailchimp
p3490
aVsalesforce-sales-cloud
p3491
aVnginx
p3492
aVgithub
p3493
aVstripe
p3494
aVtwilio
p3495
aVpagerduty
p3496
aVamazon-ec2
p3497
aVsegment
p3498
aVjquery
p3499
aVclearbit
p3500
aVemail-hunter
p3501
aVsendwithus
p3502
aVslack
p3503
aVnamecheap-web-hosting
p3504
aVgoogle-maps
p3505
aVgusto
p3506
aVhired
p3507
aVintuit-quickbooks
p3508
aVgoogle-analytics
p3509
aVcredpr
p3510
aVopbeat
p3511
asg62
(lp3512
ssS'superpedestrian'
p3513
(dp3514
g3
(dp3515
S'Acquisitions'
p3516
S'0'
p3517
sS'Growth score'
p3518
S'242'
p3519
sS'Mindshare score'
p3520
S'187'
p3521
sS'Employees'
p3522
S'40'
p3523
sS'Last funding'
p3524
S'2 years ago'
p3525
sS'Founded'
p3526
S'2012'
p3527
sS'Location'
p3528
S'Boston'
p3529
sS'Total funding'
p3530
S'$6M'
p3531
sS'Stage'
p3532
S'Series B'
p3533
ssg23
(lp3534
Vtrinet-expensecloud
p3535
aVangellist-jobs
p3536
aVdocusign
p3537
aVtypeform
p3538
aVtrinet-cloud
p3539
aVskype
p3540
aVamazon-route-53
p3541
aVfilestack
p3542
aVquantcast-measure
p3543
aVjava
p3544
aVmandrill
p3545
aVgoogle-fonts
p3546
aVsendgrid
p3547
aVsiftery
p3548
aVredis
p3549
aVeshares
p3550
aVgoogle-hangouts
p3551
aVheroku
p3552
aVgodaddy-domain-registration
p3553
aVmapbox
p3554
aVprismic
p3555
aVmoz
p3556
aVgoogle-apps-for-work
p3557
aVatlassian-jira
p3558
aVlinkedin-recruiter
p3559
aVmoody-famiglietti-andronico
p3560
aVmongodb
p3561
aVoptimizely
p3562
aVjazz
p3563
aVadroll
p3564
aVmailchimp
p3565
aVsalesforce-sales-cloud
p3566
aVinvision
p3567
aVpaperless-post
p3568
aVstripe
p3569
aVeventbrite
p3570
aVavalara
p3571
aVc-1001
p3572
aVamazon-ec2
p3573
aVnew-relic
p3574
aVc
p3575
aVgithub
p3576
aVgtc-law-group
p3577
aVslack
p3578
aVgoodwin-procter
p3579
aVcompose-hosted-mongodb
p3580
aVgoogle-drive
p3581
aVlocalytics
p3582
aVintuit-quickbooks
p3583
aVzendesk
p3584
aVgoogle-analytics
p3585
aVsalesforce-service-cloud
p3586
asg62
(lp3587
S'B2C'
p3588
aS'Automotive'
p3589
aS'Enterprise Software'
p3590
aS'Hardware'
p3591
aS'Internet of Things'
p3592
aS'Transportation'
p3593
assS'feeln-1'
p3594
(dp3595
g3
(dp3596
S'Acquisitions'
p3597
S'0'
p3598
sS'Growth score'
p3599
S'-39'
p3600
sS'Mindshare score'
p3601
S'-39'
p3602
sS'Employees'
p3603
S'71'
p3604
sS'Last funding'
p3605
g14
sS'Founded'
p3606
S'2007'
p3607
sS'Location'
p3608
S'Los Angeles'
p3609
sS'Total funding'
p3610
S'Undisclosed'
p3611
sS'Stage'
p3612
S'Acquired'
p3613
ssg23
(lp3614
Vadobe-marketing-cloud
p3615
aVboomerang-for-gmail
p3616
aVnetsuite-crm
p3617
aVlinkedin-recruiter
p3618
aVpiwik
p3619
aVamazon-route-53
p3620
aVzenefits
p3621
aVquantcast-measure
p3622
aVevernote
p3623
aVgoogle-fonts
p3624
aVsendgrid
p3625
aVsiftery
p3626
aVwordpress
p3627
aVtaboola
p3628
aVcriteo
p3629
aVve-platfrom
p3630
aVgoogle-apps-for-work
p3631
aVnetsuite-erp
p3632
aVbrowser-update
p3633
aVoptimizely
p3634
aVadroll
p3635
aVjoinme
p3636
aVthawte-ssl
p3637
aVdropbox
p3638
aVamazon-ec2
p3639
aVgithub
p3640
aVtableau-software
p3641
aVbootstrap
p3642
aVooyala
p3643
aVgoogle-tag-manager
p3644
aVgravatar
p3645
aVgoogle-analytics
p3646
asg62
(lp3647
S'B2C'
p3648
aS'E-Commerce'
p3649
assS'15five'
p3650
(dp3651
g3
(dp3652
S'Acquisitions'
p3653
S'0'
p3654
sS'Growth score'
p3655
S'255'
p3656
sS'Mindshare score'
p3657
S'251'
p3658
sS'Employees'
p3659
S'17'
p3660
sS'Last funding'
p3661
S'2 years ago'
p3662
sS'Founded'
p3663
S'2011'
p3664
sS'Location'
p3665
S'Bay Area'
p3666
sS'Total funding'
p3667
S'$3M'
p3668
sS'Stage'
p3669
S'Pre-Series A'
p3670
ssg23
(lp3671
Vmixpanel
p3672
aVcustomerio
p3673
aVangellist-jobs
p3674
aVboomerang-for-gmail
p3675
aVgoogle-drive
p3676
aVamazon-route-53
p3677
aVamazon-ec2
p3678
aVamazon-cloudfront
p3679
aVeshares
p3680
aVhubspot-marketing-platform
p3681
aVokta
p3682
aVgrowsumo
p3683
aVoptimizely
p3684
aVadobe-flash
p3685
aVadroll
p3686
aVsalesforce-sales-cloud
p3687
aVmention
p3688
aVclerky
p3689
aVdisqus
p3690
aVnew-relic
p3691
aVpreact
p3692
aVzapier
p3693
aVzoom
p3694
aVrecurly
p3695
aVgoogle-tag-manager
p3696
aVinternetbs-domain-registration
p3697
aVgoogle-analytics
p3698
aVunbounce
p3699
aVsumome
p3700
aVmaxcdn
p3701
aVzenefits
p3702
aVmandrill
p3703
aVsegment
p3704
aVgoogle-hangouts
p3705
aVgoogle-apps-for-work
p3706
aVsalesforceiq-crm
p3707
aVhello-bar
p3708
aVcrazyegg
p3709
aVinvision
p3710
aVfocuster
p3711
aVwageworks
p3712
aVgoogle-maps
p3713
aVintuit-quickbooks
p3714
aVdocusign
p3715
aVwistia
p3716
aVcudasign
p3717
aVquantcast-measure
p3718
aVevernote
p3719
aVgleam
p3720
aVsiftery
p3721
aVolark
p3722
aVwordpress
p3723
aVtoggl
p3724
aVfullstory
p3725
aVlinkedin-recruiter
p3726
aVpositionly
p3727
aVbraintree-payments
p3728
aVjquery
p3729
aVslack
p3730
aVinfluitive
p3731
aVtrello
p3732
aVyesware
p3733
aVadobe-typekit
p3734
aVfullcontact
p3735
aVhelp-scout
p3736
aVchartmogul
p3737
aVtypepad
p3738
aVslideshare
p3739
aVevergage
p3740
aVpipedrive
p3741
aVgoogle-fonts
p3742
aVsendgrid
p3743
aVsurveymonkey
p3744
aVcomodo-ssl
p3745
aVintercom
p3746
aVthelions
p3747
aVbuffer
p3748
aVinspectlet
p3749
aVaddthis
p3750
aVmailchimp
p3751
aVexpensify
p3752
aVdropbox
p3753
aVimprovely
p3754
aVgithub
p3755
aVnginx
p3756
aVbootstrap
p3757
asg62
(lp3758
S'B2B'
p3759
aS'Career / Job Search'
p3760
aS'Enterprise Software'
p3761
aS'Human Resources'
p3762
aS'Human Resources Hr'
p3763
assS'truefire'
p3764
(dp3765
g3
(dp3766
S'Acquisitions'
p3767
S'0'
p3768
sS'Growth score'
p3769
S'65'
p3770
sS'Mindshare score'
p3771
S'65'
p3772
sS'Employees'
p3773
S'24'
p3774
sS'Last funding'
p3775
g14
sS'Founded'
p3776
S'1991'
p3777
sS'Location'
p3778
S'Saint Petersburg'
p3779
sS'Total funding'
p3780
S'Undisclosed'
p3781
sS'Stage'
p3782
S'No Known Funding'
p3783
ssg23
(lp3784
Vroost
p3785
aVsumome
p3786
aVgoogle-drive
p3787
aVparse-analytics
p3788
aVtypepad
p3789
aVapache-web-server
p3790
aVgoogle-fonts
p3791
aVsiftery
p3792
aVwufoo
p3793
aVasana
p3794
aVwordpress
p3795
aVsurveymonkey
p3796
aVhello-bar
p3797
aVmoz
p3798
aVdoorbell
p3799
aVbuffer
p3800
aVintercom
p3801
aVoptimizely
p3802
aVadobe-flash
p3803
aVadroll
p3804
aVvbulletin
p3805
aVstarfield-ssl
p3806
aVdropbox
p3807
aVnew-relic
p3808
aVifttt
p3809
aVzapier
p3810
aVbootstrap
p3811
aVzendesk
p3812
aVzopim
p3813
aVgoogle-analytics
p3814
asg62
(lp3815
S'B2C'
p3816
aS'E-Commerce'
p3817
aS'Education'
p3818
aS'Mobile'
p3819
aS'Music'
p3820
assS'taskfeed'
p3821
(dp3822
g3
(dp3823
S'Acquisitions'
p3824
S'0'
p3825
sS'Growth score'
p3826
S'67'
p3827
sS'Mindshare score'
p3828
S'67'
p3829
sS'Employees'
p3830
g12
sS'Last funding'
p3831
g14
sS'Founded'
p3832
S'2014'
p3833
sS'Location'
p3834
S'London'
p3835
sS'Total funding'
p3836
S'Undisclosed'
p3837
sS'Stage'
p3838
S'No Known Funding'
p3839
ssg23
(lp3840
Vuservoice
p3841
aVmodernizr
p3842
aVhootsuite
p3843
aVgoogle-drive
p3844
aVxero
p3845
aVmixpanel
p3846
aVskimlinks
p3847
aVgoogle-fonts
p3848
aVcirrus-insight
p3849
aVsiftery
p3850
aVwordpress
p3851
aVcomodo-ssl
p3852
aVfastly
p3853
aVgoogle-apps-for-work
p3854
aVbuffer
p3855
aVintercom
p3856
aVadobe-flash
p3857
aVadroll
p3858
aVmailchimp
p3859
aVsalesforce-sales-cloud
p3860
aVheap
p3861
aVamazon-ec2
p3862
aVjquery
p3863
aVgravatar
p3864
aVopenresty
p3865
aV101domain-unified-hosting
p3866
aVgoogle-analytics
p3867
asg62
(lp3868
S'B2B'
p3869
aS'SaaS'
p3870
aS'Email'
p3871
aS'Human Resources Hr'
p3872
aS'Marketing'
p3873
assS'uxcam'
p3874
(dp3875
g3
(dp3876
S'Acquisitions'
p3877
S'0'
p3878
sS'Growth score'
p3879
S'195'
p3880
sS'Mindshare score'
p3881
S'187'
p3882
sS'Employees'
p3883
S'9'
p3884
sS'Last funding'
p3885
S'2 years ago'
p3886
sS'Founded'
p3887
S'2013'
p3888
sS'Location'
p3889
S'London'
p3890
sS'Total funding'
p3891
S'$125K'
p3892
sS'Stage'
p3893
S'Pre-Series A'
p3894
ssg23
(lp3895
Vgoogle-apps-for-work
p3896
aVsiftery
p3897
aVuservoice
p3898
aVgoogle-analytics
p3899
aVmailgun
p3900
aVgoogle-fonts
p3901
aVintercom
p3902
aVoptimizely
p3903
aVbootstrap
p3904
aVadroll
p3905
aVrawgit
p3906
aVsumome
p3907
aVhubspot-marketing-platform
p3908
aVheap
p3909
aVwordpress
p3910
aVamazon-route-53
p3911
aVsegment
p3912
aVamazon-s3
p3913
aVmixpanel
p3914
aVslack
p3915
asg62
(lp3916
S'B2B'
p3917
aS'Analytics'
p3918
aS'Enterprise Software'
p3919
aS'Mobile'
p3920
aS'Software Development'
p3921
assS'clicktime'
p3922
(dp3923
g3
(dp3924
S'Acquisitions'
p3925
S'0'
p3926
sS'Growth score'
p3927
S'232'
p3928
sS'Mindshare score'
p3929
S'232'
p3930
sS'Employees'
p3931
S'30'
p3932
sS'Last funding'
p3933
g14
sS'Founded'
p3934
S'1997'
p3935
sS'Location'
p3936
S'Bay Area'
p3937
sS'Total funding'
p3938
S'Undisclosed'
p3939
sS'Stage'
p3940
S'No Known Funding'
p3941
ssg23
(lp3942
Vsquare
p3943
aVtrello
p3944
aVyesware
p3945
aVangellist-jobs
p3946
aVmadcap-flare
p3947
aVchef
p3948
aVangularjs
p3949
aVpingdom
p3950
aVsalesforce-marketing-cloud
p3951
aVchatlio
p3952
aVgit
p3953
aVmandrill
p3954
aVphonegap
p3955
aVdns-made-easy
p3956
aVsiftery
p3957
aVredis
p3958
aVwordpress
p3959
aVjenkins
p3960
aVsalesforce-pardot
p3961
aVgoogle-apps-for-work
p3962
aVjoinme
p3963
aVjavascript
p3964
aVadroll
p3965
aVsalesforce-sales-cloud
p3966
aVapache-cordova
p3967
aVgoogle-analytics
p3968
aVsumome
p3969
aVslack
p3970
aVbootstrap
p3971
aVgoogle-fonts
p3972
aVzendesk
p3973
aVdocker
p3974
aVrawgit
p3975
asg62
(lp3976
S'B2B'
p3977
aS'Consulting'
p3978
aS'SaaS'
p3979
aS'Enterprise Software'
p3980
assS'fitsme'
p3981
(dp3982
g3
(dp3983
S'Acquisitions'
p3984
S'1'
p3985
sS'Growth score'
p3986
S'-34'
p3987
sS'Mindshare score'
p3988
S'-59'
p3989
sS'Employees'
p3990
S'53'
p3991
sS'Last funding'
p3992
S'2 years ago'
p3993
sS'Founded'
p3994
S'2010'
p3995
sS'Location'
p3996
S'Tallinn'
p3997
sS'Total funding'
p3998
S'$14M'
p3999
sS'Stage'
p4000
S'Acquired'
p4001
ssg23
(lp4002
Vbox
p4003
aVsalesforce-pardot
p4004
aVgoogle-apps-for-work
p4005
aVmicrosoft-outlook
p4006
aVcomodo-ssl
p4007
aVgoogle-fonts
p4008
aVsiftery
p4009
aVzendesk
p4010
aVadroll
p4011
aVmarin-audience-marketing-suite
p4012
aVwordpress
p4013
aVkenshoo
p4014
aVhootsuite
p4015
aVdropbox
p4016
aVamazon-route-53
p4017
aVgoogle-analytics
p4018
asg62
(lp4019
S'B2B'
p4020
aS'B2C'
p4021
aS'E-Commerce'
p4022
aS'Fashion'
p4023
aS'Marketing'
p4024
assS'plivo'
p4025
(dp4026
g3
(dp4027
S'Acquisitions'
p4028
S'0'
p4029
sS'Growth score'
p4030
S'269'
p4031
sS'Mindshare score'
p4032
S'214'
p4033
sS'Employees'
p4034
S'63'
p4035
sS'Last funding'
p4036
S'4 years ago'
p4037
sS'Founded'
p4038
S'2011'
p4039
sS'Location'
p4040
S'Bay Area'
p4041
sS'Total funding'
p4042
S'$2M'
p4043
sS'Stage'
p4044
S'Pre-Series A'
p4045
ssg23
(lp4046
Vonelogin
p4047
aVtrello
p4048
aVanyperk
p4049
aVfreshdesk
p4050
aVadobe-typekit
p4051
aVmodernizr
p4052
aVjoinme
p4053
aVsimplyhired
p4054
aVlinkedin-recruiter
p4055
aVamazon-route-53
p4056
aVzenefits
p4057
aVrecruiterbox
p4058
aVmarketo
p4059
aVangellist-jobs
p4060
aVkissmetrics
p4061
aVsiftery
p4062
aVheroku
p4063
aVsurveymonkey
p4064
aVhootsuite
p4065
aVmoz
p4066
aVgoogle-apps-for-work
p4067
aVatlassian-jira
p4068
aVsalesforceiq-crm
p4069
aVthelions
p4070
aVbuffer
p4071
aVnetwork-solutions-domain-registration
p4072
aVoptimizely
p4073
aVadobe-esign-services-formerly-echosign
p4074
aVadroll
p4075
aVsalesforce-sales-cloud
p4076
aVhired
p4077
aVstripe
p4078
aVcustomerio
p4079
aVdropbox
p4080
aV99tests
p4081
aVdisqus
p4082
aVsegment
p4083
aVgoogle-analytics
p4084
aVswiftype
p4085
aVjquery
p4086
aVperfect-audience
p4087
aVgithub
p4088
aVslack
p4089
aVmailgun
p4090
aVzapier
p4091
aVbootstrap
p4092
aVzoom
p4093
aVgoogle-tag-manager
p4094
aVintuit-quickbooks
p4095
aVzendesk
p4096
aVamazon-s3
p4097
asg62
(lp4098
S'B2B'
p4099
aS'Cloud Computing'
p4100
aS'Software Development'
p4101
aS'Telecommunications'
p4102
assS'accel-partners'
p4103
(dp4104
g3
(dp4105
S'Acquisitions'
p4106
S'0'
p4107
sS'Growth score'
p4108
S'191'
p4109
sS'Mindshare score'
p4110
S'109'
p4111
sS'Employees'
p4112
S'196'
p4113
sS'Last funding'
p4114
g14
sS'Founded'
p4115
S'1983'
p4116
sS'Location'
p4117
S'Bay Area'
p4118
sS'Total funding'
p4119
S'Undisclosed'
p4120
sS'Stage'
p4121
S'Late'
p4122
ssg23
(lp4123
Vsquarespace
p4124
aVunderscorejs
p4125
aVbackbonejs
p4126
aVxero
p4127
aVgreenhouse
p4128
aVmaxmind
p4129
aVsalesforce-marketing-cloud
p4130
aVamazon-ec2
p4131
aVblue-jeans-network
p4132
aVgoogle-fonts
p4133
aVsiftery
p4134
aVtealium
p4135
aVhootsuite
p4136
aVgoogle-apps-for-work
p4137
aVsalesforceiq-crm
p4138
aVmimecast-gateway
p4139
aVnetwork-solutions-domain-registration
p4140
aVadroll
p4141
aVbraintree-payments
p4142
aVdisqus
p4143
aVjquery
p4144
aVnew-relic
p4145
aVslack
p4146
aVno-ip-domain-registration
p4147
aVmattermark
p4148
aVbootstrap
p4149
aVventureloop
p4150
aVtracxn
p4151
aVgoogle-analytics
p4152
asg62
(lp4153
S'B2B'
p4154
aS'Finance'
p4155
aS'Real Estate'
p4156
assS'inventables'
p4157
(dp4158
g3
(dp4159
S'Acquisitions'
p4160
S'0'
p4161
sS'Growth score'
p4162
S'429'
p4163
sS'Mindshare score'
p4164
S'389'
p4165
sS'Employees'
p4166
S'29'
p4167
sS'Last funding'
p4168
S'a year ago'
p4169
sS'Founded'
p4170
S'2002'
p4171
sS'Location'
p4172
S'Chicago'
p4173
sS'Total funding'
p4174
S'$10M'
p4175
sS'Stage'
p4176
S'Series B'
p4177
ssg23
(lp4178
Vpassenger
p4179
aVmixpanel
p4180
aVangellist-jobs
p4181
aVblogger
p4182
aVmodernizr
p4183
aVgoogle-drive
p4184
aVgreenhouse
p4185
aVapache-web-server
p4186
aVamazon-cloudfront
p4187
aVruby-on-rails
p4188
aVgoogle-fonts
p4189
aVsegment
p4190
aVsendgrid
p4191
aVsiftery
p4192
aVjoker-domain-registration
p4193
aVwordpress
p4194
aVgoogle-apps-for-work
p4195
aVsimplyhired
p4196
aVlinkedin-recruiter
p4197
aVintercom
p4198
aVoptimizely
p4199
aVadroll
p4200
aVphusion-passenger
p4201
aVbraintree-payments
p4202
aVparklet
p4203
aVruby
p4204
aVnew-relic
p4205
aVapache-http-server
p4206
aVslack
p4207
aVmailgun
p4208
aVhotjar
p4209
aVbootstrap
p4210
aVglassdoor-jobs
p4211
aVintuit-quickbooks
p4212
aVgoogle-analytics
p4213
aVsalesforce-deskcom
p4214
asg62
(lp4215
S'B2B'
p4216
aS'B2C'
p4217
aS'Marketplace'
p4218
aS'E-Commerce'
p4219
aS'Hardware'
p4220
assS'moosend'
p4221
(dp4222
g3
(dp4223
S'Acquisitions'
p4224
S'0'
p4225
sS'Growth score'
p4226
S'296'
p4227
sS'Mindshare score'
p4228
S'296'
p4229
sS'Employees'
p4230
S'16'
p4231
sS'Last funding'
p4232
g14
sS'Founded'
p4233
S'2011'
p4234
sS'Location'
p4235
S'Engomi'
p4236
sS'Total funding'
p4237
S'Undisclosed'
p4238
sS'Stage'
p4239
S'No Known Funding'
p4240
ssg23
(lp4241
Vunbounce
p4242
aVsiftery
p4243
aVmixpanel
p4244
aVnodejs
p4245
aVmixmax
p4246
aVgoogle-drive
p4247
aVmoz
p4248
aVtrello
p4249
aVamazon-route-53
p4250
aVsalesforce-marketing-cloud
p4251
aVpivotal-tracker
p4252
aVdisqus
p4253
aVevernote
p4254
aVgoogle-fonts
p4255
aVcreately
p4256
aVmicrosoft-iis
p4257
aVsunrise-calendar
p4258
aVgeotrust-ssl
p4259
aVcheddargetter
p4260
aVwordpress
p4261
aVhootsuite
p4262
aVwebex-from-cisco
p4263
aVoptimonk
p4264
aVgoogle-apps-for-work
p4265
aVintercom
p4266
aVjavascript
p4267
aVadroll
p4268
aVsalesforce-sales-cloud
p4269
aVinvision
p4270
aVdropbox
p4271
aVamazon-ec2
p4272
aVsegment
p4273
aVnew-relic
p4274
aVperfect-audience
p4275
aVslack
p4276
aVzapier
p4277
aVbootstrap
p4278
aVbuiltwith
p4279
aVgravatar
p4280
aVzendesk
p4281
aVgoogle-analytics
p4282
aVlastpass
p4283
aVrawgit
p4284
asg62
(lp4285
S'B2B'
p4286
aS'Email'
p4287
aS'Marketing'
p4288
assS'jixee'
p4289
(dp4290
g3
(dp4291
S'Acquisitions'
p4292
S'0'
p4293
sS'Growth score'
p4294
S'70'
p4295
sS'Mindshare score'
p4296
S'69'
p4297
sS'Employees'
p4298
g3219
sS'Last funding'
p4299
S'6 years ago'
p4300
sS'Founded'
p4301
S'2011'
p4302
sS'Location'
p4303
S'Bay Area'
p4304
sS'Total funding'
p4305
S'$250K'
p4306
sS'Stage'
p4307
S'Pre-Series A'
p4308
ssg23
(lp4309
Vunderscorejs
p4310
aVnodejs
p4311
aVbackbonejs
p4312
aVangularjs
p4313
aVapache-web-server
p4314
aVgoogle-fonts
p4315
aVsiftery
p4316
aVwordpress
p4317
aVcomodo-ssl
p4318
aVmongodb
p4319
aVgoogle-apps-for-work
p4320
aVjoinme
p4321
aVintercom
p4322
aVadroll
p4323
aVmailchimp
p4324
aVexpensify
p4325
aVstripe
p4326
aVdisqus
p4327
aVslack
p4328
aVbootstrap
p4329
aVintuit-quickbooks
p4330
aVdigitalocean
p4331
aVzendesk
p4332
aVgoogle-analytics
p4333
asg62
(lp4334
S'B2B'
p4335
aS'Marketplace'
p4336
aS'SaaS'
p4337
aS'Education'
p4338
aS'Enterprise Software'
p4339
aS'Marketing'
p4340
aS'Software Development'
p4341
assS'30acres'
p4342
(dp4343
g23
(dp4344
ssS'dribble'
p4345
(dp4346
g3
(dp4347
S'Acquisitions'
p4348
S'0'
p4349
sS'Growth score'
p4350
S'138'
p4351
sS'Mindshare score'
p4352
S'138'
p4353
sS'Employees'
p4354
g12
sS'Last funding'
p4355
g14
sS'Founded'
p4356
g14
sS'Location'
p4357
S'London'
p4358
sS'Total funding'
p4359
S'Undisclosed'
p4360
sS'Stage'
p4361
S'No Known Funding'
p4362
ssg23
(lp4363
Vgosquared
p4364
aVsketch
p4365
aVsift-science
p4366
aVtrello
p4367
aVtwilio
p4368
aVbranch-metrics
p4369
aVbeamery
p4370
aVsimilarweb
p4371
aVusertesting
p4372
aVfacebook-ads
p4373
aVobjective-c
p4374
aVxero
p4375
aVreceipt-bank
p4376
aVdribbble-jobs
p4377
aVskype
p4378
aVamazon-route-53
p4379
aVcharliehr
p4380
aVcowboy-web-server
p4381
aVinstagress
p4382
aVtestflight
p4383
aVfabric
p4384
aVliftoff
p4385
aVsendgrid
p4386
aVsiftery
p4387
aVeshares
p4388
aVinstabug
p4389
aVzeplin
p4390
aVtweetdeck
p4391
aVtruebill
p4392
aVpaysafe
p4393
aVgeckoboard
p4394
aVgoogle-apps-for-work
p4395
aVpaypal
p4396
aVapp-annie
p4397
aVmongolab
p4398
aVevernote
p4399
aVbuffer
p4400
aVbitly
p4401
aVangellist-jobs
p4402
aVboombox
p4403
aVadroll
p4404
aVmailchimp
p4405
aVmention
p4406
aVhired
p4407
aVcustomerio
p4408
aVpixate
p4409
aVfront
p4410
aVgoogle-domains
p4411
aVdribbble
p4412
aVamazon-ec2
p4413
aVsegment
p4414
aVspendesk
p4415
aVgithub
p4416
aVslack
p4417
aVifttt
p4418
aVappsflyer
p4419
aVzapier
p4420
aVonfido
p4421
aVbootstrap
p4422
aVsmooch
p4423
aVlaunchkit
p4424
aV1password
p4425
aVadobe-photoshop
p4426
aVamplitude
p4427
aVgoogle-analytics
p4428
aVnexmo
p4429
aVadcolony
p4430
aVinvision
p4431
asg62
(lp4432
S'B2C'
p4433
aS'Entertainment'
p4434
aS'Gaming'
p4435
aS'Mobile'
p4436
assS'salesforce'
p4437
(dp4438
g3
(dp4439
S'Acquisitions'
p4440
S'41'
p4441
sS'Growth score'
p4442
S'15,486'
p4443
sS'Mindshare score'
p4444
S'486'
p4445
sS'Employees'
p4446
S'21,317'
p4447
sS'Last funding'
p4448
S'17 years ago'
p4449
sS'Founded'
p4450
S'1999'
p4451
sS'Location'
p4452
S'Bay Area'
p4453
sS'Total funding'
p4454
S'$21M'
p4455
sS'Stage'
p4456
S'Public'
p4457
ssg23
(lp4458
Vdreamfactory
p4459
aVoracle-cx
p4460
aVmixpanel
p4461
aVzencoder
p4462
aVnetwork-solutions-domain-registration
p4463
aVadobe-activation-adobe-dynamic-tag-management
p4464
aVcloveretl
p4465
aVadobe-marketing-cloud
p4466
aVeasydns-hosting
p4467
aVgoogle-drive
p4468
aVadobe-air
p4469
aVcrashplan
p4470
aVatomic
p4471
aVapache-kafka
p4472
aVgo
p4473
aVcitrix-xenapp
p4474
aVamazon-route-53
p4475
aVdnsimple
p4476
aVsharepoint
p4477
aVowler
p4478
aVcybersource
p4479
aVsauce-labs
p4480
aVtaulia
p4481
aVamazon-ec2
p4482
aVstarmobile
p4483
aVsmartsheet
p4484
aVsharethis
p4485
aVdns-made-easy
p4486
aVwufoo
p4487
aVcloud9
p4488
aVrubicon-project
p4489
aVdrawloop
p4490
aVtucows-domain-registration
p4491
aVeventboard
p4492
aVprezi
p4493
aVmicrostrategy
p4494
aVgoogle-domains
p4495
aVconnectifier
p4496
aVgetfeedback
p4497
aVmicrosoft-office-365
p4498
aVebsta
p4499
aVsoapui
p4500
aVcyfe
p4501
aVperiscope-data
p4502
aVsteelbrick
p4503
aVgodaddy-domain-registration
p4504
aVcrmfusion
p4505
aVrecaptcha
p4506
aVsalestools
p4507
aVadroll
p4508
aVbrightcove-videocloud
p4509
aVnginx
p4510
aVcloudera
p4511
aVdecibelinsight
p4512
aVtwilio
p4513
aVtruste
p4514
aVcitrix-gotomeeting
p4515
aVsnapapp
p4516
aVbombora
p4517
aVgengo
p4518
aVapache-hadoop
p4519
aVlanyon-regonline
p4520
aVnew-relic
p4521
aVcraft-cms
p4522
aVcloudflare
p4523
aVpagerduty
p4524
aVakamai-intelligent-platform
p4525
aVlanyon-smart-hotel-cloud
p4526
aVnext-caller
p4527
aVsematext
p4528
aVlaunchkit
p4529
aVrecurly
p4530
aVgoogle-tag-manager
p4531
aVfundersclub
p4532
aVangellist-jobs
p4533
aVneustar-ultradns
p4534
aVqtest
p4535
aVleadspace
p4536
aVgoogle-analytics
p4537
aVmulesoft
p4538
aVzuora
p4539
aVadobe-target
p4540
aVcloudamqp
p4541
aVdribbble-jobs
p4542
aV6sense
p4543
aVmodernizr
p4544
aVslack
p4545
aVdynamicsignal
p4546
aVbubblus
p4547
aVleadsift
p4548
aVzerigo-dns
p4549
aVanaplan
p4550
aVxactly
p4551
aVaddtoany
p4552
aVdigicert
p4553
aVwebdam
p4554
aVservicesource
p4555
aVdatadog
p4556
aVvisual-website-optimizer
p4557
aVconcur
p4558
aVmandrill
p4559
aVcirrus-insight
p4560
aVworkbooks
p4561
aVlucidchart
p4562
aVredis
p4563
aVentelo
p4564
aVgeotrust-ssl
p4565
aVapache-pig
p4566
aVpointdrive
p4567
aVtaboola
p4568
aVretention-science
p4569
aVmongodb
p4570
aVgraphite
p4571
aVlogikcull
p4572
aVjell
p4573
aVinformatica
p4574
aVscripted
p4575
aVmotionmail
p4576
aVgoogle-apps-for-work
p4577
aVatlassian-jira
p4578
aVping-identity
p4579
aVdyn-dns
p4580
aVcreately
p4581
aVcrazyegg
p4582
aVstillalive
p4583
aVdrupal
p4584
aVeasydns-domain-registration
p4585
aVapttus
p4586
aVvidyard
p4587
aVbox
p4588
aVamazon-ses
p4589
aVextrahop
p4590
aVc-1001
p4591
aVstatsocial
p4592
aValignstar
p4593
aVsolid
p4594
aVblue-jeans-network
p4595
aVcb-insights
p4596
aVon24
p4597
ag3575
aVinvision
p4598
aVgoogle-maps
p4599
aVpropeller-crm
p4600
aVkranz-and-associates
p4601
aVliveops-cloud-contact-center
p4602
aVcloudinary
p4603
aVelasticsearch
p4604
aVinspectlet
p4605
aVadobe-audience-manager
p4606
aVsiftery
p4607
aVforesee
p4608
aVfreshdesk
p4609
aVdocusign
p4610
aVmadcap-flare
p4611
aVleankit
p4612
aVlitmus
p4613
aVbug-track
p4614
aVthe-trade-desk
p4615
aVyahoo-analytics-flurry
p4616
aVsquare
p4617
aVgit-tower
p4618
aVwebhose
p4619
aVexplee
p4620
aVibm-cloudant
p4621
aVhipchat
p4622
aVyoucanbookme
p4623
aVdistribution-engine-by-nc-squared
p4624
aVdemandbase
p4625
aVquantcast-measure
p4626
aVdiffbot
p4627
aVcloudpassage
p4628
aVdocalytics
p4629
aVzoominfo
p4630
aVjobvite
p4631
aVtotango
p4632
aVheroku
p4633
aVgoogle-fonts
p4634
aVwordpress
p4635
aVadobe-esign-services-formerly-echosign
p4636
aVapache-solr
p4637
aVuxpin
p4638
aVrapid7-nexpose
p4639
aVvalidately
p4640
aVsymantec-ssl
p4641
aVfileboard
p4642
aVkanjoya-perception-for-workforce-intelligence
p4643
aVfacebook-at-work
p4644
aVperforce
p4645
aVmarketo
p4646
aVpebblepost
p4647
aVbalsamiq
p4648
aVdisqus
p4649
aVgithub
p4650
aVheap
p4651
aVcalligraphy
p4652
aVwistia
p4653
aVappnexus
p4654
aVfeedly
p4655
aVjquery
p4656
aVchef
p4657
aVterminus
p4658
aVultraserve
p4659
aVeverwise
p4660
aVtinderbox
p4661
aVrallyverse
p4662
aVatlassian-bitbucket
p4663
aVchartbeat
p4664
aVmadison-logic
p4665
aVapache-lucene
p4666
aVbluenose
p4667
aVxendo
p4668
aVsafenames-domain-registration
p4669
aVapiary
p4670
aVmarkmonitor-domain-management
p4671
aVnetapp
p4672
aVriverbed-application-performance-platform
p4673
aVsap-businessobjects-bi
p4674
aVpogo
p4675
aVtrello
p4676
aVyesware
p4677
aVdo
p4678
aVfullcontact
p4679
aVjobmount
p4680
aVtowerdata
p4681
aVsniply
p4682
aVeverstring
p4683
aVphpstorm
p4684
aVapache-web-server
p4685
aVdropbox
p4686
aVcleardb
p4687
aVcaptora
p4688
aVkaspersky-endpoint-protection
p4689
aVoracle-eloqua
p4690
aVtellapart
p4691
aVredseal
p4692
aVpaw
p4693
aVlead-liaison
p4694
aVadobe-analytics
p4695
aVsendgrid
p4696
aVforgerock
p4697
aVmarin-audience-marketing-suite
p4698
aVworkday
p4699
aVleveleleven
p4700
aVstorify
p4701
aVjenkins
p4702
aVion-interactive
p4703
aVlithium
p4704
aVguidespark
p4705
aValtify
p4706
aVphusion-passenger
p4707
aVopinionlab
p4708
aVadobe-flash
p4709
aVintercom
p4710
aVoracle-iplanet-web-server
p4711
aVtweetdeck
p4712
aVspiceworks
p4713
aVmicrosoft-sql-server
p4714
aVaddthis
p4715
aVkeas
p4716
aVexpensify
p4717
aVcoupa-unified-spend-suite
p4718
aVcoreos
p4719
aVsplunk
p4720
aVpuppet-labs
p4721
aVpostmark
p4722
aVsegment
p4723
aVberdrock-data
p4724
aVfluid-ui
p4725
aVedcast
p4726
aVcitrix-xendesktop
p4727
aVmicrosoft-outlook
p4728
aVbadgeville
p4729
aVelastic-kibana
p4730
aVbootstrap
p4731
aVoracle-database
p4732
aVhockeyapp
p4733
aVtealium
p4734
aVzendesk
p4735
aVsencha
p4736
aVoracle-hyperion-planning
p4737
asg62
(lp4738
S'B2B'
p4739
aS'SaaS'
p4740
aS'Analytics'
p4741
aS'Cloud Computing'
p4742
aS'Enterprise Software'
p4743
aS'Human Resources Hr'
p4744
aS'Marketing'
p4745
assS'pingboard'
p4746
(dp4747
g3
(dp4748
S'Acquisitions'
p4749
S'0'
p4750
sS'Growth score'
p4751
S'365'
p4752
sS'Mindshare score'
p4753
S'353'
p4754
sS'Employees'
p4755
S'14'
p4756
sS'Last funding'
p4757
S'2 years ago'
p4758
sS'Founded'
p4759
S'2013'
p4760
sS'Location'
p4761
S'Austin'
p4762
sS'Total funding'
p4763
S'$2M'
p4764
sS'Stage'
p4765
S'Pre-Series A'
p4766
ssg23
(lp4767
Vadobe-photoshop
p4768
aVuservoice
p4769
aVheap
p4770
aVworking-planet
p4771
aVadobe-typekit
p4772
aVdocusign
p4773
aVwistia
p4774
aVgoogle-apps-for-work
p4775
aVredis-labs
p4776
aVfacebook-ads
p4777
aVsumome
p4778
aVgoogle-voice
p4779
aVtypepad
p4780
aVtrello
p4781
aVfilestack
p4782
aVpivotal-tracker
p4783
aVdisqus
p4784
aVcircleci
p4785
aVangellist-jobs
p4786
aVruby-on-rails
p4787
aVsharethis
p4788
aVruby
p4789
aVhotjar
p4790
aVsiftery
p4791
aVpapertrail
p4792
aVgoogle-hangouts
p4793
aVevernote
p4794
aVheroku
p4795
aVtwitter-ads
p4796
aVwordpress
p4797
aVsurveymonkey
p4798
aVgodaddy-domain-registration
p4799
aVadobe-illustrator
p4800
aVeshares
p4801
aVgodaddy-ssl
p4802
aVfullstory
p4803
aVbonsai
p4804
aVmoz
p4805
aVgoogle-adwords
p4806
aVsalesforceiq-crm
p4807
aVrightsignature
p4808
aVgoogle-fonts
p4809
aVmarkmonitor-domain-management
p4810
aVbuffer
p4811
aVintercom
p4812
aVoptimizely
p4813
aVjavascript
p4814
aVadroll
p4815
aVoutreach
p4816
aVmailchimp
p4817
aVjoinme
p4818
aVd3js
p4819
aVstripe
p4820
aVtwilio
p4821
aVcitrix-gotomeeting
p4822
aVdropbox
p4823
aVconversionruler
p4824
aVsegment
p4825
aVgoogle-analytics
p4826
aVslack
p4827
aVjquery
p4828
aVnew-relic
p4829
aVgithub
p4830
aVpostgresql
p4831
aVmixpanel
p4832
aVmailgun
p4833
aVmaxcdn
p4834
aVgoogle-maps
p4835
aVlibrato
p4836
aVbootstrap
p4837
aVgoogle-drive
p4838
aVlinkedin-ads
p4839
aVhockeyapp
p4840
aVbing-ads
p4841
aVintuit-quickbooks
p4842
aVairbrake
p4843
aVdns-made-easy
p4844
aVzopim
p4845
aVlever
p4846
aVamazon-s3
p4847
aVbrowserstack
p4848
aVbxslider
p4849
aVgemfury
p4850
aVmarvel
p4851
asg62
(lp4852
S'B2B'
p4853
aS'SaaS'
p4854
aS'Enterprise Software'
p4855
aS'Human Resources'
p4856
aS'Human Resources Hr'
p4857
aS'Mobile'
p4858
aS'Software Development'
p4859
assS'sharethrough'
p4860
(dp4861
g3
(dp4862
S'Acquisitions'
p4863
S'1'
p4864
sS'Growth score'
p4865
S'478'
p4866
sS'Mindshare score'
p4867
S'341'
p4868
sS'Employees'
p4869
S'185'
p4870
sS'Last funding'
p4871
S'2 years ago'
p4872
sS'Founded'
p4873
S'2008'
p4874
sS'Location'
p4875
S'Bay Area'
p4876
sS'Total funding'
p4877
S'$28M'
p4878
sS'Stage'
p4879
S'Late'
p4880
ssg23
(lp4881
Vmixpanel
p4882
aVangellist-jobs
p4883
aVcronitor
p4884
aVelevio
p4885
aVmysql
p4886
aVradford-gts
p4887
aVdice
p4888
aVruby-on-rails
p4889
aVhubspot-marketing-platform
p4890
aVokta
p4891
aVmicrosoft-office-365
p4892
aVcrimson-hexagon
p4893
aVjoinme
p4894
aVintercom
p4895
aVadroll
p4896
aVscala
p4897
aVsalesforce-sales-cloud
p4898
aVnginx
p4899
aVjenkins
p4900
aVamazon-ec2
p4901
aVslack
p4902
aVvizu
p4903
aVnew-relic
p4904
aVmetamarkets
p4905
aVlever
p4906
aVgoogle-analytics
p4907
aVsublime-text
p4908
aVnamely
p4909
aVdigicert
p4910
aVamazon-route-53
p4911
aVmandrill
p4912
aVgoogle-hangouts
p4913
aVgodaddy-domain-registration
p4914
aVbenetrac
p4915
aVgoogle-apps-for-work
p4916
aVjavascript
p4917
aVinvision
p4918
aVradford-pre-ipo
p4919
aVamazon-ses
p4920
aVevernote
p4921
aVadp-streamline
p4922
aVpaylocity
p4923
aVbox
p4924
aVwageworks
p4925
aVlibrato
p4926
aVglassdoor-jobs
p4927
aVintuit-quickbooks
p4928
aVcredpr
p4929
aVhackerrank
p4930
aVdocusign
p4931
aVdatabricks
p4932
aVmarketo
p4933
aVadp-totalsource
p4934
aVapache-spark
p4935
aVgit
p4936
aVjava
p4937
aVsiftery
p4938
aVjobvite
p4939
aVheroku
p4940
aVlightbend-reactive-platform
p4941
aVchartbeat
p4942
aVfullstory
p4943
aVsimplyhired
p4944
aVlinkedin-recruiter
p4945
aVgoogle-doubleclick
p4946
aVhubspot-crm
p4947
aVappnexus
p4948
aVapache-hadoop
p4949
aVradford-gss
p4950
aVsilicon-legal
p4951
aVamazon-s3
p4952
aVtrello
p4953
aVbackbonejs
p4954
aVskype
p4955
aVhaml
p4956
aVpivotal-tracker
p4957
aVgoogle-fonts
p4958
aVstack-overflow-jobs
p4959
aVcoffeescript
p4960
aVpivotal
p4961
aV33across
p4962
aVsnowflake
p4963
aVmailchimp
p4964
aVexpensify
p4965
aVhired
p4966
aVstripe
p4967
aVdropbox
p4968
aVgithub
p4969
aVlooker
p4970
aVbootstrap
p4971
aVzendesk
p4972
asg62
(lp4973
S'Advertising'
p4974
aS'B2B'
p4975
aS'Advertising'
p4976
aS'Enterprise Software'
p4977
aS'Marketing'
p4978
aS'Mobile'
p4979
assS'amplitude'
p4980
(dp4981
g3
(dp4982
S'Acquisitions'
p4983
S'0'
p4984
sS'Growth score'
p4985
S'564'
p4986
sS'Mindshare score'
p4987
S'477'
p4988
sS'Employees'
p4989
S'47'
p4990
sS'Last funding'
p4991
S'3 months ago'
p4992
sS'Founded'
p4993
S'2012'
p4994
sS'Location'
p4995
S'Bay Area'
p4996
sS'Total funding'
p4997
S'$26M'
p4998
sS'Stage'
p4999
S'Series B'
p5000
ssg23
(lp5001
Vsalesloft
p5002
aVangellist-jobs
p5003
aVadobe-typekit
p5004
aVwistia
p5005
aVmodernizr
p5006
aVboomerang-for-gmail
p5007
aVmicrosoft-office-365
p5008
aVgoogle-drive
p5009
aVdropbox
p5010
aVamazon-route-53
p5011
aVsalesforce-marketing-cloud
p5012
aVtornado
p5013
aVmarketo
p5014
aVamazon-cloudfront
p5015
aVamazon-redshift
p5016
aVsharethis
p5017
aVzenefits
p5018
aVsiftery
p5019
aVredis
p5020
aVpython
p5021
aVwordpress
p5022
aVcomodo-ssl
p5023
aVbugsnag
p5024
aVgoogle-apps-for-work
p5025
aVatlassian-jira
p5026
aVjoinme
p5027
aVbuffer
p5028
aVdoorbell
p5029
aVadroll
p5030
aVaddthis
p5031
aVmailchimp
p5032
aVsalesforce-sales-cloud
p5033
aVnginx
p5034
aVexpensify
p5035
aVenom-domain-registration
p5036
aVkeen-io
p5037
aVlever
p5038
aVpostgresql
p5039
aVdisqus
p5040
aVsegment
p5041
aVgoogle-analytics
p5042
aVjquery
p5043
aVgithub
p5044
aVpagerduty
p5045
aVslack
p5046
aVifttt
p5047
aVhotjar
p5048
aVbootstrap
p5049
aVgoogle-fonts
p5050
aVgoogle-tag-manager
p5051
aVgravatar
p5052
aVjavascript
p5053
aVzendesk
p5054
aVuberconference
p5055
aVwhalealerts
p5056
aVdocker
p5057
aVstripe
p5058
asg62
(lp5059
S'B2B'
p5060
aS'Analytics'
p5061
aS'Finance'
p5062
aS'Marketing'
p5063
aS'Mobile'
p5064
aS'Software Development'
p5065
assS'3q-digital'
p5066
(dp5067
g3
(dp5068
S'Acquisitions'
p5069
S'0'
p5070
sS'Growth score'
p5071
S'72'
p5072
sS'Mindshare score'
p5073
S'72'
p5074
sS'Employees'
p5075
g12
sS'Last funding'
p5076
g14
sS'Founded'
p5077
S'2008'
p5078
sS'Location'
p5079
S'Bay Area'
p5080
sS'Total funding'
p5081
S'Undisclosed'
p5082
sS'Stage'
p5083
S'Acquired'
p5084
ssg23
(lp5085
Vadbasis
p5086
aVgoogle-apps-for-work
p5087
aVsalesforce-marketing-cloud
p5088
aVmicrosoft-office-365
p5089
aVgoogle-fonts
p5090
aVact-on
p5091
aVsiftery
p5092
aVvirool
p5093
aVmarin-audience-marketing-suite
p5094
aVnanigans
p5095
aVasana
p5096
aVwordpress
p5097
aVsurveymonkey
p5098
aVgodaddy-ssl
p5099
aVgoogle-adwords
p5100
aVmariana
p5101
aVoptimizely
p5102
aVadroll
p5103
aVaddthis
p5104
aVmailchimp
p5105
aVnginx
p5106
aVdropbox
p5107
aVsegment
p5108
aVtune
p5109
aVslack
p5110
aVjquery
p5111
aVperfect-audience
p5112
aVdns-made-easy
p5113
aVbootstrap
p5114
aVmedia-temple-hosting
p5115
aVgoogle-tag-manager
p5116
aVbing-ads
p5117
aVzendesk
p5118
aVgoogle-analytics
p5119
aVcredpr
p5120
aVgravity-forms
p5121
asg62
(lp5122
S'B2B'
p5123
aS'Advertising'
p5124
aS'Enterprise Software'
p5125
assS'digify'
p5126
(dp5127
g3
(dp5128
S'Acquisitions'
p5129
S'0'
p5130
sS'Growth score'
p5131
S'11'
p5132
sS'Mindshare score'
p5133
S'11'
p5134
sS'Employees'
p5135
g1515
sS'Last funding'
p5136
g14
sS'Founded'
p5137
S'2014'
p5138
sS'Location'
p5139
S'Nashville'
p5140
sS'Total funding'
p5141
S'Undisclosed'
p5142
sS'Stage'
p5143
S'No Known Funding'
p5144
ssg23
(lp5145
Vsquarespace
p5146
aVadobe-typekit
p5147
aVmicrosoft-office-365
p5148
aVtypeform
p5149
aVdigicert
p5150
aVquantcast-measure
p5151
aVgoogle-fonts
p5152
aVsiftery
p5153
aVinspectlet
p5154
aVintercom
p5155
aVgoogle-apps-for-work
p5156
aVhello-bar
p5157
aVoptimizely
p5158
aVadroll
p5159
aVaddthis
p5160
aVnginx
p5161
aVdropbox
p5162
aVdisqus
p5163
aVsegment
p5164
aVjquery
p5165
aVslack
p5166
aVifttt
p5167
aVzapier
p5168
aViubenda
p5169
aVtypography
p5170
aVmedia-temple-hosting
p5171
aVgoogle-analytics
p5172
asg62
(lp5173
S'B2B'
p5174
aS'Consulting'
p5175
aS'E-Commerce'
p5176
aS'Human Resources Hr'
p5177
aS'Marketing'
p5178
aS'Software Development'
p5179
assS'sana-commerce'
p5180
(dp5181
g3
(dp5182
S'Acquisitions'
p5183
S'0'
p5184
sS'Growth score'
p5185
S'81'
p5186
sS'Mindshare score'
p5187
S'81'
p5188
sS'Employees'
p5189
g12
sS'Last funding'
p5190
g14
sS'Founded'
p5191
S'2008'
p5192
sS'Location'
p5193
S'Rotterdam'
p5194
sS'Total funding'
p5195
S'Undisclosed'
p5196
sS'Stage'
p5197
S'No Known Funding'
p5198
ssg23
(lp5199
Vsalesloft
p5200
aVunbounce
p5201
aVuservoice
p5202
aVdnn-evoq-engage
p5203
aVhootsuite
p5204
aVdropbox
p5205
aVoptinmonster
p5206
aVtrello
p5207
aVmarketo
p5208
aVsharethis
p5209
aVsiftery
p5210
aVwordpress
p5211
aVcomodo-ssl
p5212
aVclicky
p5213
aVcrazyegg
p5214
aVmicrosoft-dynamics-crm
p5215
aVgoogle-adwords
p5216
aVinspectlet
p5217
aVrecaptcha
p5218
aVcasengo
p5219
aVadroll
p5220
aVnginx
p5221
aVlead-forensics
p5222
aVdisqus
p5223
aVjquery
p5224
aVmicrosoft-outlook
p5225
aVoptimizely
p5226
aVbootstrap
p5227
aVgoogle-fonts
p5228
aVgoogle-tag-manager
p5229
aVgoogle-analytics
p5230
asg62
(lp5231
ssS'education-elements'
p5232
(dp5233
g3
(dp5234
S'Acquisitions'
p5235
S'0'
p5236
sS'Growth score'
p5237
S'204'
p5238
sS'Mindshare score'
p5239
S'150'
p5240
sS'Employees'
p5241
S'58'
p5242
sS'Last funding'
p5243
S'5 years ago'
p5244
sS'Founded'
p5245
S'2010'
p5246
sS'Location'
p5247
S'Bay Area'
p5248
sS'Total funding'
p5249
S'$8M'
p5250
sS'Stage'
p5251
S'Series A'
p5252
ssg23
(lp5253
Vadobe-activation-adobe-dynamic-tag-management
p5254
aVmicrosoft-office-365
p5255
aVhubspot-crm
p5256
aVamazon-route-53
p5257
aVsalesforce-marketing-cloud
p5258
aVsiftery
p5259
aVjobvite
p5260
aVdocusign
p5261
aVhubspot-marketing-platform
p5262
aVsurveymonkey
p5263
aVsimplifi
p5264
aVgoogle-apps-for-work
p5265
aVatlassian-jira
p5266
aVhello-bar
p5267
aVinformatica
p5268
aVadroll
p5269
aVsalesforce-sales-cloud
p5270
aVinvision
p5271
aVexpensify
p5272
aVamazon-ses
p5273
aVcitrix-gotomeeting
p5274
aVlead-forensics
p5275
aVamazon-ec2
p5276
aVsegment
p5277
aVnew-relic
p5278
aVgithub
p5279
aVdropbox
p5280
aVintuit-quickbooks
p5281
aVzendesk
p5282
aVgoogle-analytics
p5283
asg62
(lp5284
S'B2B'
p5285
aS'Education'
p5286
assS'timeion'
p5287
(dp5288
g3
(dp5289
S'Acquisitions'
p5290
S'0'
p5291
sS'Growth score'
p5292
S'-10'
p5293
sS'Mindshare score'
p5294
S'-10'
p5295
sS'Employees'
p5296
g12
sS'Last funding'
p5297
g14
sS'Founded'
p5298
g14
sS'Location'
p5299
S'Warsaw'
p5300
sS'Total funding'
p5301
S'Undisclosed'
p5302
sS'Stage'
p5303
S'No Known Funding'
p5304
ssg23
(lp5305
Vtrello
p5306
aVbraintree-payments
p5307
aVworkable
p5308
aVmodernizr
p5309
aVmicrosoft-office-365
p5310
aVuservoice
p5311
aVevernote
p5312
aVmandrill
p5313
aVgoogle-fonts
p5314
aVsendgrid
p5315
aVsiftery
p5316
aVgeotrust-ssl
p5317
aVhelpsite
p5318
aVwordpress
p5319
aVwoopra
p5320
aVintercom
p5321
aVgoogle-apps-for-work
p5322
aVatlassian-jira
p5323
aVtableau-software
p5324
aVbuffer
p5325
aVhello-bar
p5326
aVoptimizely
p5327
aVclicky
p5328
aVadroll
p5329
aVknol
p5330
aVmailchimp
p5331
aVinvision
p5332
aVheap
p5333
aVcanva
p5334
aVdropbox
p5335
aVdisqus
p5336
aVsegment
p5337
aVjquery
p5338
aVgithub
p5339
aVslack
p5340
aVnginx
p5341
aVgoogle-maps
p5342
aVzapier
p5343
aVbootstrap
p5344
aVgoogle-tag-manager
p5345
aVamplitude
p5346
aVgoogle-analytics
p5347
aVadobe-marketing-cloud
p5348
asg62
(lp5349
S'B2B'
p5350
aS'SaaS'
p5351
aS'Human Resources Hr'
p5352
aS'Internet of Things'
p5353
aS'Mobile'
p5354
assS'dreamit-ventures'
p5355
(dp5356
g3
(dp5357
S'Acquisitions'
p5358
S'0'
p5359
sS'Growth score'
p5360
S'131'
p5361
sS'Mindshare score'
p5362
S'131'
p5363
sS'Employees'
p5364
g12
sS'Last funding'
p5365
g14
sS'Founded'
p5366
S'2008'
p5367
sS'Location'
p5368
S'Philadelphia'
p5369
sS'Total funding'
p5370
S'Undisclosed'
p5371
sS'Stage'
p5372
S'No Known Funding'
p5373
ssg23
(lp5374
Vsquarespace
p5375
aVtodoist
p5376
aVunderscorejs
p5377
aVangellist-jobs
p5378
aVadobe-typekit
p5379
aVqbox
p5380
aVcaptain401
p5381
aVboomerang-for-gmail
p5382
aVdelighted
p5383
aVbackbonejs
p5384
aVyahoo-analytics-flurry
p5385
aVgreenhouse
p5386
aVlinkedin-recruiter
p5387
aVattribution
p5388
aVdigicert
p5389
aVindinero
p5390
aVgit
p5391
aVoutbound
p5392
aVtalkdesk
p5393
aVgoogle-fonts
p5394
aVkissmetrics
p5395
aVsiftery
p5396
aVwufoo
p5397
aVgeotrust-ssl
p5398
aVcoffeescript
p5399
aVworkable
p5400
aVcheckr
p5401
aVreflektive
p5402
aVgoogle-apps-for-work
p5403
aVgigster
p5404
aVuberconference
p5405
aVhello-bar
p5406
aVoptimizely
p5407
aVadobe-flash
p5408
aVadroll
p5409
aVmailchimp
p5410
aVjustworks
p5411
aVtrendkite
p5412
aVaws-elastic-load-balancing
p5413
aVhostmonster
p5414
aVamazon-cloudfront
p5415
aVsegment
p5416
aVswiftype
p5417
aVjquery
p5418
aVnew-relic
p5419
aVpostgresql
p5420
aVslack
p5421
aVmailgun
p5422
aVcallr
p5423
aVgoogle-maps
p5424
aVgoogle-drive
p5425
aVzencoder
p5426
aVdjango
p5427
aVcampaign-monitor
p5428
aVamplitude
p5429
aVlever
p5430
aVgoogle-analytics
p5431
aVmarkmonitor-domain-management
p5432
aVhtml5
p5433
asg62
(lp5434
S'B2B'
p5435
aS'Healthcare'
p5436
assS'inbep'
p5437
(dp5438
g3
(dp5439
S'Acquisitions'
p5440
S'0'
p5441
sS'Growth score'
p5442
S'220'
p5443
sS'Mindshare score'
p5444
S'213'
p5445
sS'Employees'
p5446
S'11'
p5447
sS'Last funding'
p5448
S'4 years ago'
p5449
sS'Founded'
p5450
S'2012'
p5451
sS'Location'
p5452
g14
sS'Total funding'
p5453
S'$3K'
p5454
sS'Stage'
p5455
S'Pre-Series A'
p5456
ssg23
(lp5457
Vsphinx-search
p5458
aVatlassian-bitbucket
p5459
aVtrello
p5460
aVnodejs
p5461
aVbackbonejs
p5462
aVbeanstalk
p5463
aVamazon-ec2
p5464
aVpipedrive
p5465
aVgoogle-fonts
p5466
aVsiftery
p5467
aVredis
p5468
aVolark
p5469
aVwordpress
p5470
aVhootsuite
p5471
aVcloudflare
p5472
aVmariadb
p5473
aVgoogle-apps-for-work
p5474
aVmongodb
p5475
aVoptimizely
p5476
aVjavascript
p5477
aVadroll
p5478
aVinspectlet
p5479
aVmailchimp
p5480
aVmention
p5481
aVdisqus
p5482
aVhtml5
p5483
aVubuntu
p5484
aVdropbox
p5485
aVphp
p5486
aVpostgresql
p5487
aVslack
p5488
aVmailgun
p5489
aVnginx
p5490
aVbootstrap
p5491
aVgoogle-analytics
p5492
aVrequirejs
p5493
asg62
(lp5494
S'B2C'
p5495
aS'Education'
p5496
assS'talkdesk'
p5497
(dp5498
g3
(dp5499
S'Acquisitions'
p5500
S'0'
p5501
sS'Growth score'
p5502
S'711'
p5503
sS'Mindshare score'
p5504
S'348'
p5505
sS'Employees'
p5506
S'197'
p5507
sS'Last funding'
p5508
S'a year ago'
p5509
sS'Founded'
p5510
S'2011'
p5511
sS'Location'
p5512
S'Bay Area'
p5513
sS'Total funding'
p5514
S'$24M'
p5515
sS'Stage'
p5516
S'Series A'
p5517
ssg23
(lp5518
Vlinode
p5519
aVuservoice
p5520
aVangellist-jobs
p5521
aVadobe-typekit
p5522
aVdocusign
p5523
aVwistia
p5524
aVmicrosoft-office-365
p5525
aVbackbonejs
p5526
aVfont-awesome
p5527
aVbitium
p5528
aVgeotrust-ssl
p5529
aVtypepad
p5530
aVamazon-route-53
p5531
aVsalesforce-marketing-cloud
p5532
aVsiftery
p5533
aVmarketo
p5534
aVgogohire
p5535
aVwp-engine
p5536
aVruby-on-rails
p5537
aVgoogle-fonts
p5538
aVruby
p5539
aVsendgrid
p5540
aVresque
p5541
aVredis
p5542
aVmarin-audience-marketing-suite
p5543
aVsinatra
p5544
aVasana
p5545
aVhubspot-marketing-platform
p5546
aVgodaddy-domain-registration
p5547
aVmongodb
p5548
aVpromoterio
p5549
aVbugsnag
p5550
aVtoofr
p5551
aVoptimizely
p5552
aVsidekiq-pro
p5553
aVgoogle-apps-for-work
p5554
aVsumome
p5555
aVsalesforceiq-crm
p5556
aVnew-relic
p5557
aVbuffer
p5558
aVintercom
p5559
aVrecaptcha
p5560
aVadobe-flash
p5561
aVadroll
p5562
aVoutreach
p5563
aVinterviewed
p5564
aVsalesforce-sales-cloud
p5565
aVnginx
p5566
aVexpensify
p5567
aVgreenhouse
p5568
aVtwilio
p5569
aVwordpress
p5570
aVcitrix-gotomeeting
p5571
aVinsightsquared
p5572
aVsegment
p5573
aVblue-jeans-network
p5574
aVclearbit
p5575
aVperfect-audience
p5576
aVgithub
p5577
aVslack
p5578
aVmailgun
p5579
aVturnto
p5580
aVchef
p5581
aVbootstrap
p5582
aVgoogle-drive
p5583
aVrabbitmq
p5584
aVgoogle-maps
p5585
aVzendesk
p5586
aVusersnap
p5587
aVgoogle-analytics
p5588
aVlanding-jobs
p5589
aVsalesforce-service-cloud
p5590
asg62
(lp5591
S'B2B'
p5592
aS'SaaS'
p5593
aS'Customer Support'
p5594
aS'Enterprise Software'
p5595
aS'Marketing'
p5596
assS'lima-1'
p5597
(dp5598
g3
(dp5599
S'Acquisitions'
p5600
S'0'
p5601
sS'Growth score'
p5602
S'-11'
p5603
sS'Mindshare score'
p5604
S'-11'
p5605
sS'Employees'
p5606
g12
sS'Last funding'
p5607
g14
sS'Founded'
p5608
S'2011'
p5609
sS'Location'
p5610
S'New York'
p5611
sS'Total funding'
p5612
S'Undisclosed'
p5613
sS'Stage'
p5614
S'No Known Funding'
p5615
ssg23
(lp5616
Vtrello
p5617
aVangellist-jobs
p5618
aVboomerang-for-gmail
p5619
aVmicrosoft-office-365
p5620
aVsumome
p5621
aVskype
p5622
aVevernote
p5623
aVmailjet
p5624
aVgoogle-fonts
p5625
aVsendgrid
p5626
aVsiftery
p5627
aVgoogle-hangouts
p5628
aVazetone-mobile-ab-testing-ariseio
p5629
aVwordpress
p5630
aVcriteo
p5631
aVcloudflare
p5632
aVgoogle-apps-for-work
p5633
aVab-tasty
p5634
aVintercom
p5635
aVpaypal
p5636
aVadroll
p5637
aVinvision
p5638
aVstripe
p5639
aVcustomerio
p5640
aVdropbox
p5641
aVamazon-ec2
p5642
aVsegment
p5643
aVjquery
p5644
aVgithub
p5645
aVgoogle-tag-manager
p5646
aVzendesk
p5647
aVgoogle-analytics
p5648
aVkissmetrics
p5649
asg62
(lp5650
S'Internet of Things'
p5651
aS'Mobile'
p5652
assS'the-jar-group'
p5653
(dp5654
g3
(dp5655
S'Acquisitions'
p5656
S'0'
p5657
sS'Growth score'
p5658
S'-39'
p5659
sS'Mindshare score'
p5660
S'-39'
p5661
sS'Employees'
p5662
g3404
sS'Last funding'
p5663
g14
sS'Founded'
p5664
S'2006'
p5665
sS'Location'
p5666
S'New York'
p5667
sS'Total funding'
p5668
S'Undisclosed'
p5669
sS'Stage'
p5670
S'No Known Funding'
p5671
ssg23
(lp5672
Vsiftery
p5673
aVtrello
p5674
aVdocusign
p5675
aVjoinme
p5676
aVskype
p5677
aVlinkedin-recruiter
p5678
aVzenefits
p5679
aVevernote
p5680
aVgoogle-fonts
p5681
aVmicrosoft-iis
p5682
aVgoogle-hangouts
p5683
aVwordpress
p5684
aVsurveymonkey
p5685
aVgodaddy-domain-registration
p5686
aVhubspot-marketing-platform
p5687
aVgodaddy-ssl
p5688
aVmoz
p5689
aVgoogle-apps-for-work
p5690
aVtableau-software
p5691
aVbuffer
p5692
aVintercom
p5693
aVoptimizely
p5694
aVpaypal
p5695
aVadroll
p5696
aVgoogle-doubleclick
p5697
aVamazon-ses
p5698
aVgodaddy-dns
p5699
aVdropbox
p5700
aVamazon-ec2
p5701
aVsegment
p5702
aVgithub
p5703
aVslack
p5704
aVifttt
p5705
aVgoogle-maps
p5706
aVzapier
p5707
aVbootstrap
p5708
aVintuit-quickbooks
p5709
aVgoogle-analytics
p5710
aVmarkmonitor-domain-management
p5711
asg62
(lp5712
S'B2B'
p5713
aS'Advertising'
p5714
aS'Marketing'
p5715
assS'paydock'
p5716
(dp5717
g23
(dp5718
ssS'boon'
p5719
(dp5720
g3
(dp5721
S'Acquisitions'
p5722
S'0'
p5723
sS'Growth score'
p5724
S'148'
p5725
sS'Mindshare score'
p5726
S'143'
p5727
sS'Employees'
p5728
g3404
sS'Last funding'
p5729
S'7 months ago'
p5730
sS'Founded'
p5731
S'2014'
p5732
sS'Location'
p5733
S'Culver City'
p5734
sS'Total funding'
p5735
S'$235K'
p5736
sS'Stage'
p5737
S'Pre-Series A'
p5738
ssg23
(lp5739
Vlinode
p5740
aVtrello
p5741
aVangellist-jobs
p5742
aVdocusign
p5743
aVsiftery
p5744
aVmodernizr
p5745
aVboomerang-for-gmail
p5746
aVpendo
p5747
aVusertesting
p5748
aVtypeform
p5749
aVangularjs
p5750
aVbugherd
p5751
aVevernote
p5752
aVmandrill
p5753
aVinsightly
p5754
aVdns-made-easy
p5755
aVsendgrid
p5756
aVcontactually
p5757
aVgeotrust-ssl
p5758
aVhubspot-marketing-platform
p5759
aVnginx
p5760
aVintercom
p5761
aVwordpress
p5762
aVbox
p5763
aVgoogle-apps-for-work
p5764
aVjavascript
p5765
aVjoinme
p5766
aVcalendly
p5767
aVbuffer
p5768
aVbitly
p5769
aVoptimizely
p5770
aVadobe-flash
p5771
aVadroll
p5772
aVembedly
p5773
aVaddthis
p5774
aVmention
p5775
aVstripe
p5776
aVdropbox
p5777
aVphp
p5778
aVsegment
p5779
aVjquery
p5780
aVnew-relic
p5781
aVgithub
p5782
aVslack
p5783
aVifttt
p5784
aVinvision
p5785
aVgoogle-maps
p5786
aVzapier
p5787
aVgoogle-drive
p5788
aVgoogle-fonts
p5789
aVzendesk
p5790
aVgoogle-analytics
p5791
aVsalesforce-deskcom
p5792
aVzoom
p5793
asg62
(lp5794
S'B2B'
p5795
aS'B2C'
p5796
aS'Career / Job Search'
p5797
aS'Education'
p5798
aS'Finance'
p5799
aS'Marketing'
p5800
assS'magazinescom'
p5801
(dp5802
g3
(dp5803
S'Acquisitions'
p5804
S'0'
p5805
sS'Growth score'
p5806
S'-62'
p5807
sS'Mindshare score'
p5808
S'-62'
p5809
sS'Employees'
p5810
S'57'
p5811
sS'Last funding'
p5812
g14
sS'Founded'
p5813
S'1999'
p5814
sS'Location'
p5815
S'Nashville'
p5816
sS'Total funding'
p5817
S'Undisclosed'
p5818
sS'Stage'
p5819
S'No Known Funding'
p5820
ssg23
(lp5821
Vdisqus
p5822
aVsketch
p5823
aVatlassian-confluence
p5824
aVrakuten-display-formerly-mediaforge
p5825
aVwistia
p5826
aVadobe-marketing-cloud
p5827
aVtypeform
p5828
aVmagento
p5829
aVmysql
p5830
aVpingdom
p5831
aVapache-web-server
p5832
aVgit
p5833
aVgoogle-fonts
p5834
aVsalesforce-marketing-cloud
p5835
aVsiftery
p5836
aVpolldaddy
p5837
aVimgix
p5838
aVwordpress
p5839
aVbxslider
p5840
aVadobe-creative-cloud
p5841
aVibm-cognos-business-intelligence
p5842
aVsymantec-ssl
p5843
aVatlassian-jira
p5844
aVbasecamp
p5845
aVbitly
p5846
aVadobe-flash
p5847
aVadroll
p5848
aVinvision
p5849
aVbbb-dynamic-seal
p5850
aVflickr-api
p5851
aVdropbox
p5852
aVgrunt
p5853
aVaxure
p5854
aVjquery
p5855
aVmicrosoft-outlook
p5856
aVslack
p5857
aVsass
p5858
aVakamai-intelligent-platform
p5859
aVbootstrap
p5860
aVgoogle-drive
p5861
aVconvertro
p5862
aVspeedcurve
p5863
aVgoogle-analytics
p5864
aVsoasta-mpulse
p5865
asg62
(lp5866
S'B2C'
p5867
assS'tenmax-ad-tech-lab'
p5868
(dp5869
g23
(dp5870
ssS'koombea'
p5871
(dp5872
g3
(dp5873
S'Acquisitions'
p5874
S'0'
p5875
sS'Growth score'
p5876
S'32'
p5877
sS'Mindshare score'
p5878
S'32'
p5879
sS'Employees'
p5880
S'89'
p5881
sS'Last funding'
p5882
g14
sS'Founded'
p5883
S'2007'
p5884
sS'Location'
p5885
S'New York'
p5886
sS'Total funding'
p5887
S'Undisclosed'
p5888
sS'Stage'
p5889
S'No Known Funding'
p5890
ssg23
(lp5891
Vsketch
p5892
aVsiftery
p5893
aVtrello
p5894
aVnetsuite-erp
p5895
aVhelp-scout
p5896
aVinterstate-analytics
p5897
aVmixpanel
p5898
aVdnsimple
p5899
aVwp-engine
p5900
aVgoogle-fonts
p5901
aVdns-made-easy
p5902
aVlinode
p5903
aVwufoo
p5904
aVgeotrust-ssl
p5905
aVheroku
p5906
aVheatmap
p5907
aVwordpress
p5908
aVsalesforce-pardot
p5909
aVgoogle-apps-for-work
p5910
aVbasecamp
p5911
aVdigitalocean
p5912
aVintercom
p5913
aVoptimizely
p5914
aVadroll
p5915
aVsalesforce-sales-cloud
p5916
aVnginx
p5917
aVflickr-api
p5918
aVstripe
p5919
aVbraintree-payments
p5920
aVdropbox
p5921
aVsegment
p5922
aVtoutapp
p5923
aVnew-relic
p5924
aVzenefits
p5925
aVgithub
p5926
aVslack
p5927
aVpandadoc
p5928
aVdropbox-paper
p5929
aVgoogle-tag-manager
p5930
aVtextmate
p5931
aVgoogle-analytics
p5932
asg62
(lp5933
S'B2B'
p5934
aS'Consulting'
p5935
aS'Marketing'
p5936
assS'thelions'
p5937
(dp5938
g3
(dp5939
S'Acquisitions'
p5940
S'0'
p5941
sS'Growth score'
p5942
S'33'
p5943
sS'Mindshare score'
p5944
S'22'
p5945
sS'Employees'
p5946
S'29'
p5947
sS'Last funding'
p5948
S'5 years ago'
p5949
sS'Founded'
p5950
S'2010'
p5951
sS'Location'
p5952
S'Bay Area'
p5953
sS'Total funding'
p5954
S'$250K'
p5955
sS'Stage'
p5956
S'Pre-Series A'
p5957
ssg23
(lp5958
Vjquery
p5959
aVyahoo-ui-library
p5960
aVgoogle-apps-for-work
p5961
aVdocusign
p5962
aVzenefits
p5963
aVoptimizely
p5964
aVsiftery
p5965
aVadroll
p5966
aVgusto
p5967
aVmedia-temple-hosting
p5968
aVgoogle-maps
p5969
aVgoogle-fonts
p5970
aVwordpress
p5971
aVadstage
p5972
aVgoogle-analytics
p5973
aVapache-web-server
p5974
aVmarkmonitor-domain-management
p5975
asg62
(lp5976
S'B2C'
p5977
aS'Career / Job Search'
p5978
aS'Finance'
p5979
aS'Human Resources Hr'
p5980
aS'Mobile'
p5981
aS'Search'
p5982
assS'compstak'
p5983
(dp5984
g3
(dp5985
S'Acquisitions'
p5986
S'0'
p5987
sS'Growth score'
p5988
S'151'
p5989
sS'Mindshare score'
p5990
S'125'
p5991
sS'Employees'
p5992
S'49'
p5993
sS'Last funding'
p5994
S'2 years ago'
p5995
sS'Founded'
p5996
S'2011'
p5997
sS'Location'
p5998
S'New York'
p5999
sS'Total funding'
p6000
S'$5M'
p6001
sS'Stage'
p6002
S'Series A'
p6003
ssg23
(lp6004
Vtrello
p6005
aVyesware
p6006
aVangellist-jobs
p6007
aVnodejs
p6008
aVadobe-marketing-cloud
p6009
aVboomerang-for-gmail
p6010
aVhiver-grexit
p6011
aVtoptal
p6012
aVbackbonejs
p6013
aVgoogle-drive
p6014
aVhandlebarsjs
p6015
aVmysql
p6016
aVamazon-route-53
p6017
aVzenefits
p6018
aVrecruiterbox
p6019
aVdisqus
p6020
aVjava
p6021
aVscala
p6022
aVgoogle-fonts
p6023
aVcirrus-insight
p6024
aVsendgrid
p6025
aVsiftery
p6026
aVgeotrust-ssl
p6027
aVwebpack
p6028
aVhubspot-marketing-platform
p6029
aVsurveymonkey
p6030
aVgodaddy-domain-registration
p6031
aVmongodb
p6032
aVfullstory
p6033
aVdropbox
p6034
aVgoogle-apps-for-work
p6035
aVatlassian-jira
p6036
aVjoinme
p6037
aVabacus
p6038
aVpython
p6039
aVintercom
p6040
aVoptimizely
p6041
aVsalesforce-datacom
p6042
aVadroll
p6043
aVmailchimp
p6044
aVsalesforce-sales-cloud
p6045
aVinvision
p6046
aVstripe
p6047
aVheap
p6048
aVhubspot-crm
p6049
aVamazon-ec2
p6050
aVsegment
p6051
aVinfusionsoft
p6052
aVsumome
p6053
aVappcues
p6054
aVgithub
p6055
aVslack
p6056
aVnginx
p6057
aVgoogle-maps
p6058
aVzapier
p6059
aVdjango
p6060
aVcloudinary
p6061
aVr
p6062
aVintuit-quickbooks
p6063
aVjavascript
p6064
aVzendesk
p6065
aVgoogle-analytics
p6066
aVmicrosoft-office-365
p6067
aVrequirejs
p6068
asg62
(lp6069
S'B2B'
p6070
aS'Marketplace'
p6071
aS'Enterprise Software'
p6072
aS'Finance'
p6073
aS'Real Estate'
p6074
assS'can-capital'
p6075
(dp6076
g3
(dp6077
S'Acquisitions'
p6078
S'0'
p6079
sS'Growth score'
p6080
S'-22'
p6081
sS'Mindshare score'
p6082
S'-22'
p6083
sS'Employees'
p6084
g12
sS'Last funding'
p6085
S'6 years ago'
p6086
sS'Founded'
p6087
S'1998'
p6088
sS'Location'
p6089
S'New York'
p6090
sS'Total funding'
p6091
S'$30M'
p6092
sS'Stage'
p6093
S'Late'
p6094
ssg23
(lp6095
Vexperian-marketing-suite
p6096
aVadobe-marketing-cloud
p6097
aVmicrosoft-office-365
p6098
aVradius
p6099
aVboldchat
p6100
aVdigicert
p6101
aVjostle
p6102
aVdemandbase
p6103
aVqualtrics-research-suite
p6104
aVsiftery
p6105
aVmarin-audience-marketing-suite
p6106
aVdocusign
p6107
aVforcepoint-triton-apx
p6108
aVwordpress
p6109
aVgodaddy-domain-registration
p6110
aVgodaddy-dns
p6111
aVcloudflare
p6112
aVmicrosoft-dynamics-crm
p6113
aVtrustpilot
p6114
aVbuffer
p6115
aVoptimizely
p6116
aVadroll
p6117
aVbrightroll
p6118
aVnginx
p6119
aVtruste
p6120
aVpostmark
p6121
aVnew-relic
p6122
aVmicrosoft-outlook
p6123
aVclickdimensions
p6124
aVsignal
p6125
aVbootstrap
p6126
aVgoogle-tag-manager
p6127
aVkenshoo
p6128
aVzendesk
p6129
aVgoogle-analytics
p6130
asg62
(lp6131
S'B2B'
p6132
aS'Banking'
p6133
aS'Crowdfunding'
p6134
aS'E-Commerce'
p6135
aS'Finance'
p6136
aS'Human Resources Hr'
p6137
aS'Payments'
p6138
aS'Real Estate'
p6139
assS'izenda'
p6140
(dp6141
g3
(dp6142
S'Acquisitions'
p6143
S'0'
p6144
sS'Growth score'
p6145
S'123'
p6146
sS'Mindshare score'
p6147
S'101'
p6148
sS'Employees'
p6149
S'40'
p6150
sS'Last funding'
p6151
S'2 years ago'
p6152
sS'Founded'
p6153
S'2002'
p6154
sS'Location'
p6155
S'Atlanta'
p6156
sS'Total funding'
p6157
S'$3M'
p6158
sS'Stage'
p6159
S'Pre-Series A'
p6160
ssg23
(lp6161
Vhandshake
p6162
aVsiftery
p6163
aVadroll
p6164
aVrecaptcha
p6165
aVincapsula
p6166
aVglobalsign
p6167
aVhubspot-marketing-platform
p6168
aVsurveymonkey
p6169
aVregistercom-domain-registration
p6170
aVgoogle-analytics
p6171
asg62
(lp6172
S'B2B'
p6173
aS'SaaS'
p6174
aS'Analytics'
p6175
aS'Enterprise Software'
p6176
aS'Marketing'
p6177
assS'hiree'
p6178
(dp6179
g3
(dp6180
S'Acquisitions'
p6181
S'0'
p6182
sS'Growth score'
p6183
S'314'
p6184
sS'Mindshare score'
p6185
S'328'
p6186
sS'Employees'
p6187
S'79 '
p6188
sS'Last funding'
p6189
S'2 years ago'
p6190
sS'Founded'
p6191
S'2014'
p6192
sS'Location'
p6193
S'Bangalore'
p6194
sS'Total funding'
p6195
S'$3M'
p6196
sS'Stage'
p6197
S'Acquired'
p6198
ssg23
(lp6199
Vfrrole-scout
p6200
aVamazon-elastictranscoder
p6201
aVmicrosoft-office-365
p6202
aVtypeform
p6203
aVamazon-route-53
p6204
aVapache-web-server
p6205
aVjava
p6206
aVsiftery
p6207
aVheatmap
p6208
aVzoho-crm
p6209
aVgodaddy-domain-registration
p6210
aVgodaddy-ssl
p6211
aVgoogle-apps-for-work
p6212
aVrecaptcha
p6213
aVjavascript
p6214
aVadroll
p6215
aVmailchimp
p6216
aVmention
p6217
aVamazon-ses
p6218
aVamazon-ec2
p6219
aVslack
p6220
aVifttt
p6221
aVgoogle-maps
p6222
aVbootstrap
p6223
aVgoogle-tag-manager
p6224
aVgoogle-analytics
p6225
asg62
(lp6226
S'B2B'
p6227
aS'Human Resources Hr'
p6228
assS'pentaho'
p6229
(dp6230
g3
(dp6231
S'Acquisitions'
p6232
S'0'
p6233
sS'Growth score'
p6234
S'396'
p6235
sS'Mindshare score'
p6236
S'221'
p6237
sS'Employees'
p6238
S'315'
p6239
sS'Last funding'
p6240
S'4 years ago'
p6241
sS'Founded'
p6242
S'2004'
p6243
sS'Location'
p6244
S'Bay Area'
p6245
sS'Total funding'
p6246
S'$65M'
p6247
sS'Stage'
p6248
S'Acquired'
p6249
ssg23
(lp6250
Vrackspace-hosting
p6251
aVdocusign
p6252
aVmodernizr
p6253
aVintacct
p6254
aVapache-web-server
p6255
aVmarketo
p6256
aVjava
p6257
aVleandata
p6258
aVsiftery
p6259
aVmelbourne-it-domain-registration
p6260
aVgodaddy-ssl
p6261
aVbox
p6262
aVmicrosoft-office-365
p6263
aVsalesforceiq-crm
p6264
aVthelions
p6265
aVrecaptcha
p6266
aVadobe-flash
p6267
aVadroll
p6268
aVoutreach
p6269
aVaddthis
p6270
aVbrightcove-videocloud
p6271
aVsalesforce-sales-cloud
p6272
aVapache-tomcat
p6273
aVmicrosoft-outlook
p6274
aVcitrix-gotomeeting
p6275
aVdropbox
p6276
aVsnapapp
p6277
aVtoutapp
p6278
aVjquery
p6279
aVapache-http-server
p6280
aVpostgresql
p6281
aVdrupal
p6282
aVbootstrap
p6283
aVexpensify
p6284
aVgoogle-fonts
p6285
aVgoogle-tag-manager
p6286
aVtellapart
p6287
aVinsideview
p6288
aVzendesk
p6289
aVvzaar
p6290
aVgoogle-analytics
p6291
asg62
(lp6292
S'B2B'
p6293
aS'Direct Sales'
p6294
aS'SaaS'
p6295
aS'Analytics'
p6296
aS'Finance'
p6297
aS'Government'
p6298
aS'Healthcare'
p6299
aS'Retail'
p6300
aS'Software Development'
p6301
assS'hifrank'
p6302
(dp6303
g3
(dp6304
S'Acquisitions'
p6305
S'0'
p6306
sS'Growth score'
p6307
S'256'
p6308
sS'Mindshare score'
p6309
S'256'
p6310
sS'Employees'
p6311
g12
sS'Last funding'
p6312
g14
sS'Founded'
p6313
S'2014'
p6314
sS'Location'
p6315
S'New York'
p6316
sS'Total funding'
p6317
S'Undisclosed'
p6318
sS'Stage'
p6319
S'No Known Funding'
p6320
ssg23
(lp6321
Vtrello
p6322
aVangellist-jobs
p6323
aVmodernizr
p6324
aVsumome
p6325
aVgoogle-drive
p6326
aVmixpanel
p6327
aVamazon-route-53
p6328
aVmandrill
p6329
aVgoogle-fonts
p6330
aVsendgrid
p6331
aVsiftery
p6332
aVolark
p6333
aVcomodo-ssl
p6334
aVhootsuite
p6335
aVmoz
p6336
aVgoogle-apps-for-work
p6337
aVoptimizely
p6338
aVadobe-flash
p6339
aVadroll
p6340
aVstripe
p6341
aVamazon-ec2
p6342
aVslack
p6343
aVgoogle-analytics
p6344
asg62
(lp6345
S'B2C'
p6346
aS'Banking'
p6347
aS'Crowdfunding'
p6348
assS'course-report'
p6349
(dp6350
g3
(dp6351
S'Acquisitions'
p6352
S'0'
p6353
sS'Growth score'
p6354
S'505'
p6355
sS'Mindshare score'
p6356
S'495'
p6357
sS'Employees'
p6358
g1007
sS'Last funding'
p6359
g14
sS'Founded'
p6360
S'2013'
p6361
sS'Location'
p6362
S'New York'
p6363
sS'Total funding'
p6364
S'Undisclosed'
p6365
sS'Stage'
p6366
S'Pre-Series A'
p6367
ssg23
(lp6368
Vmixpanel
p6369
aVadobe-typekit
p6370
aVsteelhouse
p6371
aVsumome
p6372
aVcowboy-web-server
p6373
aVtrello
p6374
aVquantcast-measure
p6375
aVsiftery
p6376
aVsurveymonkey
p6377
aVcomodo-ssl
p6378
aVfastly
p6379
aVgodaddy-dns
p6380
aVmoz
p6381
aVgoogle-apps-for-work
p6382
aVinspectlet
p6383
aVhootsuite
p6384
aVadroll
p6385
aVcustomerio
p6386
aVamazon-ec2
p6387
aVnew-relic
p6388
aVmicrosoft-outlook
p6389
aVzapier
p6390
aVgoogle-tag-manager
p6391
aVgoogle-analytics
p6392
asg62
(lp6393
S'B2B'
p6394
aS'B2C'
p6395
aS'Lead Generation'
p6396
aS'Education'
p6397
aS'Human Resources Hr'
p6398
assS'ou'
p6399
(dp6400
g3
(dp6401
S'Acquisitions'
p6402
S'0'
p6403
sS'Growth score'
p6404
S'69'
p6405
sS'Mindshare score'
p6406
S'69'
p6407
sS'Employees'
p6408
g12
sS'Last funding'
p6409
g14
sS'Founded'
p6410
g14
sS'Location'
p6411
S'Washington'
p6412
sS'Total funding'
p6413
S'Undisclosed'
p6414
sS'Stage'
p6415
S'No Known Funding'
p6416
ssg23
(lp6417
Vrackspace-hosting
p6418
aVsiftery
p6419
aVadobe-typekit
p6420
aVdyn-dns
p6421
aVsublime-text
p6422
aVgoogle-drive
p6423
aVwoocommerce
p6424
aVgoogle-tag-manager
p6425
aVmysql
p6426
aVpingdom
p6427
aVapache-web-server
p6428
aVvirtualbox
p6429
aVgit
p6430
aVcircleci
p6431
aVmandrill
p6432
aVgoogle-fonts
p6433
aVpusher
p6434
aVvagrant
p6435
aVwufoo
p6436
aVwordpress
p6437
aVmongodb
p6438
aVspotim
p6439
aVoptimizely
p6440
aVgodaddy-ssl
p6441
aVintercom
p6442
aVrecaptcha
p6443
aVadobe-flash
p6444
aVadroll
p6445
aVaddthis
p6446
aVjw-player
p6447
aVinvision
p6448
aVmicrosoft-outlook
p6449
aVbower
p6450
aVamazon-cloudfront
p6451
aVamazon-ec2
p6452
aVsegment
p6453
aVgoogle-analytics
p6454
aVnew-relic
p6455
aVgithub
p6456
aVpostgresql
p6457
aVtestflight
p6458
aVgoogle-maps
p6459
aVbootstrap
p6460
aVcloudinary
p6461
aVelasticsearch
p6462
aVzendesk
p6463
aVdocker
p6464
aVbrowserstack
p6465
aVgravity-forms
p6466
asg62
(lp6467
ssS'the-raiders'
p6468
(dp6469
g23
(dp6470
ssS'foot-cardigan'
p6471
(dp6472
g3
(dp6473
S'Acquisitions'
p6474
S'0'
p6475
sS'Growth score'
p6476
S'224'
p6477
sS'Mindshare score'
p6478
S'224'
p6479
sS'Employees'
p6480
S'13'
p6481
sS'Last funding'
p6482
g14
sS'Founded'
p6483
S'2012'
p6484
sS'Location'
p6485
S'Dallas'
p6486
sS'Total funding'
p6487
S'Undisclosed'
p6488
sS'Stage'
p6489
S'No Known Funding'
p6490
ssg23
(lp6491
Vgosquared
p6492
aVgoogle-apps-for-work
p6493
aVsiftery
p6494
aVadobe-typekit
p6495
aVslack
p6496
aVmandrill
p6497
aVzapier
p6498
aVsendgrid
p6499
aVbootstrap
p6500
aVadroll
p6501
aVbounce-exchange
p6502
aVfoxycart
p6503
aVmailchimp
p6504
aVnginx
p6505
aVtypeform
p6506
aVsurveymonkey
p6507
aVzendesk
p6508
aVdropbox
p6509
aVgoogle-analytics
p6510
aVinterstate-analytics
p6511
aVnamecom-hosting
p6512
asg62
(lp6513
S'B2C'
p6514
aS'Food & Beverages'
p6515
assS'crowdtwist'
p6516
(dp6517
g3
(dp6518
S'Acquisitions'
p6519
S'0'
p6520
sS'Growth score'
p6521
S'56'
p6522
sS'Mindshare score'
p6523
S'19'
p6524
sS'Employees'
p6525
S'58'
p6526
sS'Last funding'
p6527
S'2 years ago'
p6528
sS'Founded'
p6529
S'2009'
p6530
sS'Location'
p6531
S'New York'
p6532
sS'Total funding'
p6533
S'$16M'
p6534
sS'Stage'
p6535
S'Series B'
p6536
ssg23
(lp6537
Vappriver
p6538
aVamazon-route-53
p6539
aVsalesforce-marketing-cloud
p6540
aVdemandbase
p6541
aVwp-engine
p6542
aVgoogle-fonts
p6543
aVsendgrid
p6544
aVsiftery
p6545
aVgeotrust-ssl
p6546
aVasana
p6547
aVwordpress
p6548
aVsurveymonkey
p6549
aVsalesforce-pardot
p6550
aVmicrosoft-office-365
p6551
aVnetwork-solutions-domain-registration
p6552
aVadroll
p6553
aVnginx
p6554
aVmarionette
p6555
aVdropbox
p6556
aVphp
p6557
aVofferpop
p6558
aVjquery
p6559
aVslack
p6560
aVgoogle-analytics
p6561
asg62
(lp6562
S'B2B'
p6563
aS'Advertising'
p6564
aS'Analytics'
p6565
aS'Enterprise Software'
p6566
aS'Marketing'
p6567
aS'Media'
p6568
aS'Music'
p6569
aS'Publishing'
p6570
aS'Retail'
p6571
assS'remix-second-hand'
p6572
(dp6573
g3
(dp6574
S'Acquisitions'
p6575
S'0'
p6576
sS'Growth score'
p6577
S'-115'
p6578
sS'Mindshare score'
p6579
S'-115'
p6580
sS'Employees'
p6581
g12
sS'Last funding'
p6582
g14
sS'Founded'
p6583
S'2012'
p6584
sS'Location'
p6585
S'Bulgaria'
p6586
sS'Total funding'
p6587
S'Undisclosed'
p6588
sS'Stage'
p6589
S'No Known Funding'
p6590
ssg23
(lp6591
Vgoogle-apps-for-work
p6592
aVsiftery
p6593
aVmixpanel
p6594
aVgoogle-fonts
p6595
aVintercom
p6596
aVhotjar
p6597
aVbootstrap
p6598
aVadroll
p6599
aVgeotrust-ssl
p6600
aVnginx
p6601
aVgoogle-tag-manager
p6602
aVhubspot-marketing-platform
p6603
aVamplitude
p6604
aVcloudns
p6605
aVdropbox
p6606
aVcriteo
p6607
aVsegment
p6608
aVgoogle-analytics
p6609
aVtrello
p6610
asg62
(lp6611
ssS'jobbatical'
p6612
(dp6613
g3
(dp6614
S'Acquisitions'
p6615
S'0'
p6616
sS'Growth score'
p6617
S'828'
p6618
sS'Mindshare score'
p6619
S'813'
p6620
sS'Employees'
p6621
S'15 '
p6622
sS'Last funding'
p6623
S'6 months ago'
p6624
sS'Founded'
p6625
S'2014'
p6626
sS'Location'
p6627
S'Tallinn'
p6628
sS'Total funding'
p6629
S'$2M'
p6630
sS'Stage'
p6631
S'Pre-Series A'
p6632
ssg23
(lp6633
Vtrello
p6634
aVyesware
p6635
aVnodejs
p6636
aVhellosign
p6637
aVgoogle-apps-for-work
p6638
aVtypeform
p6639
aVnotify
p6640
aVteleport-sundial
p6641
aVpipedrive
p6642
aVmandrill
p6643
aVgoogle-fonts
p6644
aVsiftery
p6645
aVgoogle-hangouts
p6646
aVasana
p6647
aVcomodo-ssl
p6648
aVgodaddy-dns
p6649
aVgoogle-adwords
p6650
aVbuffer
p6651
aVjavascript
p6652
aVadroll
p6653
aVmailchimp
p6654
aVinvision
p6655
aVhtml5
p6656
aVbraintree-payments
p6657
aVphp
p6658
aVsegment
p6659
aVjquery
p6660
aVpostgresql
p6661
aVslack
p6662
aVmention
p6663
aVgoogle-maps
p6664
aVzapier
p6665
aVatlassian-bitbucket
p6666
aVgoogle-tag-manager
p6667
aVzendesk
p6668
aVzopim
p6669
aVgoogle-analytics
p6670
asg62
(lp6671
S'B2B'
p6672
aS'B2C'
p6673
aS'Marketplace'
p6674
aS'Career / Job Search'
p6675
aS'Human Resources Hr'
p6676
assS'cotopaxi'
p6677
(dp6678
g3
(dp6679
S'Acquisitions'
p6680
S'0'
p6681
sS'Growth score'
p6682
S'606'
p6683
sS'Mindshare score'
p6684
S'565'
p6685
sS'Employees'
p6686
S'37'
p6687
sS'Last funding'
p6688
S'a year ago'
p6689
sS'Founded'
p6690
S'2014'
p6691
sS'Location'
p6692
S'Salt Lake City'
p6693
sS'Total funding'
p6694
S'$7M'
p6695
sS'Stage'
p6696
S'Series A'
p6697
ssg23
(lp6698
Vyieldify
p6699
aVtrello
p6700
aVadobe-typekit
p6701
aVdocusign
p6702
aVsiftery
p6703
aVnetsuite-erp
p6704
aVmicrosoft-office-365
p6705
aVdigicert
p6706
aVavant-metrics
p6707
aVrecruiterbox
p6708
aVquantcast-measure
p6709
aVshopify
p6710
aVsendgrid
p6711
aVlucky-orange
p6712
aVtalkable
p6713
aVfriendbuy
p6714
aVbluehost
p6715
aVwordpress
p6716
aVhull
p6717
aVravenjs
p6718
aVcriteo
p6719
aVoptimizely
p6720
aVvenmo
p6721
aVgoogle-apps-for-work
p6722
aVpaypal
p6723
aVnetwork-solutions-domain-registration
p6724
aVrecaptcha
p6725
aVadobe-flash
p6726
aVadroll
p6727
aVsalesforce-sales-cloud
p6728
aVnginx
p6729
aVauthorizenet
p6730
aVdropbox
p6731
aVjquery
p6732
aVnew-relic
p6733
aVgithub
p6734
aVpusher
p6735
aVslack
p6736
aVzapier
p6737
aVklaviyo
p6738
aVbootstrap
p6739
aVzendesk
p6740
aVzopim
p6741
aVgoogle-analytics
p6742
asg62
(lp6743
S'B2C'
p6744
aS'Crowdfunding'
p6745
aS'E-Commerce'
p6746
assS'fastspring'
p6747
(dp6748
g3
(dp6749
S'Acquisitions'
p6750
S'0'
p6751
sS'Growth score'
p6752
S'145'
p6753
sS'Mindshare score'
p6754
S'96'
p6755
sS'Employees'
p6756
S'51'
p6757
sS'Last funding'
p6758
S'3 years ago'
p6759
sS'Founded'
p6760
S'2005'
p6761
sS'Location'
p6762
S'Santa Barbara'
p6763
sS'Total funding'
p6764
S'Undisclosed'
p6765
sS'Stage'
p6766
S'Late'
p6767
ssg23
(lp6768
Vrackspace-email
p6769
aVshareasale
p6770
aVwistia
p6771
aVbox
p6772
aVangularjs
p6773
aVpiwik
p6774
aVamazon-route-53
p6775
aVapache-web-server
p6776
aVmicrosoft-office-365
p6777
aVgoogle-fonts
p6778
aVsalesforce-marketing-cloud
p6779
aVsiftery
p6780
aVasana
p6781
aVhubspot-marketing-platform
p6782
aVclicky
p6783
aVoptimizely
p6784
aVgodaddy-ssl
p6785
aVsocketlabs
p6786
aVgoogle-apps-for-work
p6787
aVjazz
p6788
aVrecaptcha
p6789
aVjavascript
p6790
aVadroll
p6791
aVmailchimp
p6792
aVamazon-ses
p6793
aVdropbox
p6794
aVjquery
p6795
aVapache-http-server
p6796
aVslack
p6797
aVgoogle-tag-manager
p6798
aVzendesk
p6799
aVgoogle-analytics
p6800
asg62
(lp6801
S'B2B'
p6802
aS'B2C'
p6803
aS'Marketplace'
p6804
aS'SaaS'
p6805
aS'Subscription'
p6806
aS'E-Commerce'
p6807
aS'Gaming'
p6808
assS'clarus-commerce'
p6809
(dp6810
g3
(dp6811
S'Acquisitions'
p6812
S'0'
p6813
sS'Growth score'
p6814
S'-5'
p6815
sS'Mindshare score'
p6816
S'-5'
p6817
sS'Employees'
p6818
g12
sS'Last funding'
p6819
g14
sS'Founded'
p6820
S'2001'
p6821
sS'Location'
p6822
S'Rocky Hill'
p6823
sS'Total funding'
p6824
S'Undisclosed'
p6825
sS'Stage'
p6826
S'No Known Funding'
p6827
ssg23
(lp6828
Vtrello
p6829
aVdocusign
p6830
aVadobe-marketing-cloud
p6831
aVmicrosoft-office-365
p6832
aVsumome
p6833
aVworkfront
p6834
aVapache-web-server
p6835
aVqualaroo
p6836
aVmailjet
p6837
aVsharethis
p6838
aVsiftery
p6839
aVfriendbuy
p6840
aVwordpress
p6841
aVsurveymonkey
p6842
aVhootsuite
p6843
aVgodaddy-dns
p6844
aVsprout-social
p6845
aVcrazyegg
p6846
aVgoogle-apps-for-work
p6847
aVmodernizr
p6848
aVbasecamp
p6849
aVoptimizely
p6850
aVadroll
p6851
aVdropbox
p6852
aVbronto
p6853
aVpaylocity
p6854
aVusertesting
p6855
aVgoogle-maps
p6856
aVleadlander
p6857
aVgoogle-fonts
p6858
aVgoogle-analytics
p6859
aVmarkmonitor-domain-management
p6860
asg62
(lp6861
S'B2B'
p6862
assS'yottaa'
p6863
(dp6864
g3
(dp6865
S'Acquisitions'
p6866
S'0'
p6867
sS'Growth score'
p6868
S'71'
p6869
sS'Mindshare score'
p6870
S'69'
p6871
sS'Employees'
p6872
S'49'
p6873
sS'Last funding'
p6874
S'3 years ago'
p6875
sS'Founded'
p6876
S'2009'
p6877
sS'Location'
p6878
S'Boston'
p6879
sS'Total funding'
p6880
S'$29M'
p6881
sS'Stage'
p6882
S'Series C'
p6883
ssg23
(lp6884
Vsiftery
p6885
aVadobe-typekit
p6886
aVwistia
p6887
aVpiwik
p6888
aVapache-web-server
p6889
aVmarketo
p6890
aVwp-engine
p6891
aVdns-made-easy
p6892
aVsendgrid
p6893
aVcertify
p6894
aVwordpress
p6895
aVdapulse
p6896
aVhubspot-marketing-platform
p6897
aVgoogle-apps-for-work
p6898
aVhootsuite
p6899
aVadroll
p6900
aVamazon-ses
p6901
aVbrightinfo
p6902
aVslack
p6903
aVcedexis-radar
p6904
aVuberflip
p6905
aVgoogle-maps
p6906
aVzendesk
p6907
aVgoogle-analytics
p6908
aVgravity-forms
p6909
asg62
(lp6910
S'B2B'
p6911
aS'Bitcoin'
p6912
aS'Finance'
p6913
aS'Internet of Things'
p6914
aS'Software Development'
p6915
assS'microsoft'
p6916
(dp6917
g3
(dp6918
S'Acquisitions'
p6919
S'133'
p6920
sS'Growth score'
p6921
S'559'
p6922
sS'Mindshare score'
p6923
S'559'
p6924
sS'Employees'
p6925
S'130,494'
p6926
sS'Last funding'
p6927
g14
sS'Founded'
p6928
S'1975'
p6929
sS'Location'
p6930
S'Seattle'
p6931
sS'Total funding'
p6932
S'Undisclosed'
p6933
sS'Stage'
p6934
S'Public'
p6935
ssg23
(lp6936
Vlinqia
p6937
aVgigya
p6938
aVbranch-metrics
p6939
aVdscout
p6940
aVmagnetic
p6941
aVarticulate-storyline
p6942
aVgoogle-drive
p6943
aVclassapps-selectsurveynet
p6944
aVamazon-route-53
p6945
aVsalesforce-marketing-cloud
p6946
aVoracle-datalogix
p6947
aVstarmobile
p6948
aVextole
p6949
aVapimetrics
p6950
aVgandinet-domain-registration
p6951
aVsimply-measured
p6952
aVoracle-hyperion-planning
p6953
aVretargeter
p6954
aVcontract-logix
p6955
aVcrashlytics
p6956
aVadobe-flash
p6957
aVseo-powersuite
p6958
aVflickr-api
p6959
aVapache-cordova
p6960
aVangoss-knowledgereader
p6961
aVsurvey-analytics
p6962
aVbuiltwith
p6963
aVadjust
p6964
aVhubb
p6965
aVpluralsight
p6966
aVsentry
p6967
aVverto-analytics
p6968
aVgoogle-apps-for-work
p6969
aVsublime-text
p6970
aVchef
p6971
aVbrightedge
p6972
aVtextio
p6973
aVknowledge-anywhere
p6974
aVquestionpro
p6975
aVuxpin
p6976
aVgenymotion
p6977
aVpostman
p6978
aVentelo
p6979
aVdbvisualizer
p6980
aVevolve24-evolution-platform
p6981
aVgodaddy-domain-registration
p6982
aVmelbourne-it-domain-registration
p6983
aVdegreed-for-business
p6984
aVdynamicsignal
p6985
aVkaggle
p6986
aVnetworkmonkey
p6987
aVinterana
p6988
aVextrahop
p6989
aVlinkedin-sales-navigator
p6990
aVbazaarvoice
p6991
aVbango
p6992
aVhuboard
p6993
aVelastic-kibana
p6994
aVmobit
p6995
aVdocusign
p6996
aVscalearc
p6997
aVhostmonster
p6998
aVyahoo-analytics-flurry
p6999
aVbeckon
p7000
aVmarketo
p7001
aVcontactexpress
p7002
aVqualys
p7003
aVsocedo
p7004
aVnylas-n1
p7005
aVsap-erp
p7006
aVlogicmonitor
p7007
aVmindsumo
p7008
aVkanjoya-perception-for-workforce-intelligence
p7009
aVappnexus
p7010
aVsap-businessobjects-bi
p7011
aVf
p7012
aVatlassian-bitbucket
p7013
aVunomy
p7014
aVusersnap
p7015
aVindix
p7016
aVdstillery
p7017
aVpusher
p7018
aVsitefinity-digital-experience-cloud
p7019
aVnativo
p7020
aVcedexis-openmix
p7021
aVtext100
p7022
aVoutbrain
p7023
aVkissmetrics
p7024
aVsansa-security
p7025
aVcrowdflower
p7026
aVfoxit
p7027
aVdevart
p7028
aV77agency
p7029
aVangoss-knowledgeseeker
p7030
aVflixmedia
p7031
aVapache-hbase
p7032
aVsynergy-wholesale-domain-registration
p7033
aVadsuit
p7034
aVlisnr
p7035
aVpositive-ssl
p7036
aVspiceworks
p7037
aVenom-domain-registration
p7038
aVsprinklr
p7039
aVsalespredict
p7040
aVgraphiq-findthebest
p7041
aVgithub
p7042
aVviglink
p7043
aVbootstrap
p7044
aVhockeyapp
p7045
aVtealium
p7046
aVappboy
p7047
aVkenshoo
p7048
aVtapad
p7049
aVfluentd
p7050
aVtagboard
p7051
aVcachefly
p7052
aVovh-domain-registration
p7053
aVlenos-regengine
p7054
aVlex-machina
p7055
aVpitchbook
p7056
aVcontainership
p7057
aVamazon-cloudfront
p7058
aVdns-made-easy
p7059
aVpayboard
p7060
aVaplusnet-domain-registration
p7061
aVbounce-exchange
p7062
aVtalkwalker
p7063
aVcorehub-domain-registration
p7064
aVtucows-domain-registration
p7065
aVcoverity
p7066
aVfactual
p7067
aVsteelbrick
p7068
aVadroll
p7069
aVangoss-insightoptimizer
p7070
aVmention
p7071
aVcedexis-radar
p7072
aVamazon-ec2
p7073
aVklear
p7074
aVakamai-intelligent-platform
p7075
aVgitlab
p7076
aVraygun
p7077
aVrapidmail
p7078
aVgravatar
p7079
aVneustar-ultradns
p7080
aVgoogle-analytics
p7081
aVmulesoft
p7082
aVwhoknows
p7083
aVuservoice
p7084
aVteamwork-chat
p7085
aVadespresso
p7086
aVcloudfactory
p7087
aVneo4j
p7088
aVensighten
p7089
aVtrumpia
p7090
aVservicesource
p7091
aVtelerik-test-studio
p7092
aVmentimeter
p7093
aValliance-tech
p7094
aVsencha
p7095
aVwebtrends
p7096
aVliveperson
p7097
aVtelerik-kendo-ui
p7098
aVgradeus
p7099
aVatlassian-jira
p7100
aVping-identity
p7101
aVtelerik-teampulse
p7102
aVapteligent
p7103
aVapache-spark
p7104
aVbmc-remedy
p7105
aVcb-insights
p7106
aVanychart
p7107
aVsojern
p7108
aVlanyon-regonline
p7109
aVbuysellads
p7110
aVelasticsearch
p7111
aVapache-cassandra
p7112
aVionic
p7113
aVsaberr
p7114
aVclicktale
p7115
aVmadcap-flare
p7116
aVwochit
p7117
aVgameffective
p7118
aVibm-cloudant
p7119
aVlexalytics-semantria
p7120
aVquantcast-measure
p7121
aVdiffbot
p7122
aVhourlynerd
p7123
aVworkboard
p7124
aVsmashicons
p7125
aVsnaplogic
p7126
aVclearslide
p7127
aVcoosto
p7128
aVembedly
p7129
aVmohimap
p7130
aVxamarin-insights
p7131
aVsearchyourcloud
p7132
aVlivestream
p7133
aVcoworker-coffee
p7134
aVgrunt
p7135
aVhetzner-domain-registration
p7136
aVtellwise
p7137
aVcontent-square
p7138
aVapache-hadoop
p7139
aVpagely
p7140
aVglobalsign
p7141
aVheg-domain-registration
p7142
aVmadison-logic
p7143
aVtapinfluence
p7144
aVmarkmonitor-domain-management
p7145
aVnetapp
p7146
aVgeofeedia
p7147
aVakamai-fast-dns
p7148
aVhue
p7149
aVapache-commons
p7150
aVbluip
p7151
aVcloudmunch
p7152
aVfacebook-ads
p7153
aVtelerik-devcraft
p7154
aVfortumo
p7155
aVmindswarms
p7156
aVtapstream
p7157
aVsocialbakers
p7158
aVdundas
p7159
aVtheplatform
p7160
aVgild
p7161
aVgoogle-doubleclick
p7162
aVhiree
p7163
aVoctopus-deploy
p7164
aVangoss-knowledgestudio
p7165
aVmoqups
p7166
aVsegment
p7167
aVapache-hive
p7168
aVfinancial-engines
p7169
aVsocialmetrix
p7170
aVjupyter
p7171
aVregister4less-domain-registration
p7172
aVsalesify
p7173
aVprinciple
p7174
aVdoubleverify
p7175
aVmythings
p7176
aVmopro
p7177
aVsurveygizmo
p7178
aVdrawbridge
p7179
aVtrapit
p7180
aVowler
p7181
aVservicenow
p7182
aVwufoo
p7183
aVonbarcode
p7184
aVdyn-dns
p7185
aVmouseflow
p7186
aVveritas-netbackup
p7187
aVtaboola
p7188
aVjquery
p7189
aVadobe-marketing-cloud
p7190
aVvisual-paradigm
p7191
aVonalytica
p7192
aVsalestools
p7193
aVtwilio
p7194
aVconviva
p7195
aVdisqus
p7196
aVuberflip
p7197
aVpagerduty
p7198
aVcouchbase
p7199
aVtruex
p7200
aVbluehornet
p7201
aVleadspace
p7202
aVsoasta-mpulse
p7203
aVmindflash-lms
p7204
aVkeynote
p7205
aVsumome
p7206
aValteryx
p7207
aVwiplo
p7208
aVpingdom
p7209
aVcentrify-identity-service
p7210
aVintelligize
p7211
aVpolldaddy
p7212
aVsoapui
p7213
aVslack
p7214
aVfusioncharts
p7215
aVsmartsupp-live-chat
p7216
aVquestback
p7217
aVfanplayr
p7218
aVjavascript
p7219
aVeyereturn
p7220
aVinvision
p7221
aVpublic-domain-registry-domain-registration
p7222
aVamazon-ses
p7223
aVmcafee-saas
p7224
aVwageworks
p7225
aVredgate
p7226
aVcision-social
p7227
aVadobe-audience-manager
p7228
aVcaplinked
p7229
aVqorus
p7230
aVdigital-river
p7231
aVhackerrank
p7232
aVangoss-knowledgecore
p7233
aVclearstory-data
p7234
aVtelerik-platform
p7235
aVdomaindiscount24-domain-registration
p7236
aVquintly
p7237
aVtalentbrew
p7238
aVquid
p7239
aVcoinbase-merchants
p7240
aVrfactor
p7241
aVmilwardbrowndigital
p7242
aVtableau-software
p7243
aVcontent-fleet
p7244
aVninthdecimal
p7245
aVjw-player
p7246
aVroundpegg
p7247
aVcalligraphy
p7248
aVganglia
p7249
aVathoc
p7250
aVseattleclouds
p7251
aVcoveralls
p7252
aVeverstring
p7253
aVrallyverse
p7254
aVzingchart
p7255
aVlocalytics
p7256
aVswrve
p7257
aVtrello
p7258
aVoptimal-idm
p7259
aVadobe-typekit
p7260
aVappriver
p7261
aVskype
p7262
aVtango-card
p7263
aVkochava
p7264
aVcleardb
p7265
aVgkg-domain-registration
p7266
aVsurveymoz
p7267
aVsendgrid
p7268
aVverne
p7269
aVaternity
p7270
aVsurveymonkey
p7271
aVstorify
p7272
aVcloudflare
p7273
aVrecaptcha
p7274
aVmemsql
p7275
aVinxpo
p7276
aVhitslink
p7277
aVab-tasty
p7278
aVlatentview
p7279
aVsocialondemand
p7280
aVfolio
p7281
aVwaterfall
p7282
aVpyramid-analytics-bi-office
p7283
aVapache-sqoop
p7284
aVberdrock-data
p7285
aVfastdomain-domain-registration
p7286
aVpiazza
p7287
aVnet-applications-netmarketshare
p7288
aValtoros
p7289
aVkraken
p7290
aVtestrail
p7291
aVdocker
p7292
aVsocialchorus
p7293
aVunified
p7294
aVapptio
p7295
aVloggly
p7296
aVcrowdin
p7297
aVgravity
p7298
aVredis-labs
p7299
aVhello-world-formerly-eprize
p7300
aVlocalize
p7301
aVeffective-measure
p7302
aVanswerhub
p7303
aVruby-on-rails
p7304
aVsalesforce-deskcom
p7305
aVitextpdf
p7306
aVnavicat
p7307
aVolark
p7308
aVbugsnag
p7309
aVsprout-social
p7310
aVmixpanel
p7311
aVcrimson-hexagon
p7312
aVapp-annie
p7313
aVradiumone-post
p7314
aVnew-relic
p7315
aVcentercode
p7316
aVdoorbell
p7317
aVbitpay
p7318
aVjibe
p7319
aVresolver
p7320
aVappdirect
p7321
aVchanneladvisor
p7322
aVlanyon-smart-hotel-cloud
p7323
aVsematext
p7324
aVgoogle-tag-manager
p7325
aVspring-framework
p7326
aVmodernizr
p7327
aVatlassian-bamboo
p7328
aVgodaddy-professional-email
p7329
aVoracle-data-cloud-bluekaidatalogix
p7330
aVfastmail
p7331
aVredis
p7332
aVtrendemon
p7333
aVwayin
p7334
aVcriteo
p7335
aVoptimizely
p7336
aVfireeye
p7337
aVcrazyegg
p7338
aVopenprovider-domain-registration
p7339
aVc-1000
p7340
aVlogstash
p7341
aVandela
p7342
aVpostgresql
p7343
aVlinkedin-elevate
p7344
aVglassdoor-jobs
p7345
aVsp-capital-iq
p7346
aVhired
p7347
aVbrowserstack
p7348
aVshowpad
p7349
aVtribe
p7350
aVascio-domain-registration
p7351
aVintermedia-hosted-exchange
p7352
aVthe-trade-desk
p7353
aVdexi
p7354
aVatlassian-sourcetree
p7355
aVqualtrics-research-suite
p7356
aVvirtualbox
p7357
aVcloseio
p7358
aVdemandbase
p7359
aVgit
p7360
aVsiftery
p7361
aVscoopit
p7362
aVzoominfo
p7363
aVelement-analytics
p7364
aVheroku
p7365
aVwordpress
p7366
aVchartbeat
p7367
aVgodaddy-ssl
p7368
aVsymantec-ssl
p7369
aVcustora
p7370
aVtalentbin
p7371
aVbouncycastle-crypto
p7372
aVzerolag-dedicated-exchange-hosting
p7373
aVquixey
p7374
aVcloudamqp
p7375
aVgenuitec
p7376
aVneuron-esb
p7377
aVapiary
p7378
aVpassenger
p7379
aVoneall
p7380
aVinnovid
p7381
aVinstra-domain-registration
p7382
aVsynchronoss
p7383
aVpeople-hr
p7384
aVcommunit
p7385
aVdataxu
p7386
aVgoogle-fonts
p7387
aVappveyor
p7388
aVlogmein-rescue
p7389
aVclicky
p7390
aVjenkins
p7391
aVbeqom
p7392
aVmongodb
p7393
aVzenhub
p7394
aVlookeen
p7395
aVaddthis
p7396
aVsocialwally
p7397
aVdropbox
p7398
aVxamarin
p7399
aVflippingbook
p7400
aVonespot
p7401
aVmandrill
p7402
aVoneload
p7403
aVmixrank
p7404
aVn3
p7405
asg62
(lp7406
S'B2B'
p7407
aS'B2C'
p7408
aS'Cloud Computing'
p7409
aS'Enterprise Software'
p7410
aS'Gaming'
p7411
aS'Hardware'
p7412
aS'Network / Hosting / Infrastructure'
p7413
aS'Security'
p7414
aS'Software Development'
p7415
ass.