(dp0
S'kim-doyal'
p1
(dp2
S'products'
p3
(dp4
ssS'trey-heath'
p5
(dp6
g3
(dp7
ssS'eatstreet'
p8
(dp9
S'quickfacts'
p10
(dp11
S'Acquisitions'
p12
S'0'
p13
sS'Growth score'
p14
S'431'
p15
sS'Mindshare score'
p16
S'351'
p17
sS'Employees'
p18
S'111'
p19
sS'Last funding'
p20
S'9 months ago'
p21
sS'Founded'
p22
S'2010'
p23
sS'Location'
p24
S'Madison'
p25
sS'Total funding'
p26
S'$27M'
p27
sS'Stage'
p28
S'Series C'
p29
ssg3
(lp30
Vbraintree-payments
p31
aVbranch-metrics
p32
aVmodernizr
p33
aVdropbox
p34
aVsumome
p35
aVobjective-c
p36
aVwywy
p37
aVangularjs
p38
aVmysql
p39
aVamazon-route-53
p40
aVsauce-labs
p41
aVquantcast-measure
p42
aVdisqus
p43
aVjava
p44
aVangellist-jobs
p45
aVgoogle-fonts
p46
aVsendgrid
p47
aVsiftery
p48
aVwordpress
p49
aVgodaddy-domain-registration
p50
aVgodaddy-ssl
p51
aVfullstory
p52
aVgoogle-apps-for-work
p53
aVpython
p54
aVjavascript
p55
aVadroll
p56
aVmailchimp
p57
aVsalesforce-sales-cloud
p58
aVnginx
p59
aVapache-tomcat
p60
aVstripe
p61
aVamazon-ses
p62
aVrafflecopter
p63
aVamazon-ec2
p64
aVcj-affiliate
p65
aVslack
p66
aVjquery
p67
aVnew-relic
p68
aVgoogle-analytics
p69
aVsass
p70
aVgoogle-maps
p71
aVsift-science
p72
aVtypography
p73
aVtravis-ci
p74
aVgoogle-tag-manager
p75
aVbeekeeper-data
p76
aVdashlane
p77
aVsalesforce-service-cloud
p78
asS'tags'
p79
(lp80
S'B2B'
p81
aS'B2C'
p82
aS'On-Demand'
p83
aS'E-Commerce'
p84
aS'Food & Beverages'
p85
aS'Hospitality'
p86
aS'Mobile'
p87
assS'scandiweb'
p88
(dp89
g10
(dp90
S'Acquisitions'
p91
S'0'
p92
sS'Growth score'
p93
S'101'
p94
sS'Mindshare score'
p95
S'101'
p96
sS'Employees'
p97
S'100'
p98
sS'Last funding'
p99
S'NA'
p100
sS'Founded'
p101
S'2003'
p102
sS'Location'
p103
S'Riga'
p104
sS'Total funding'
p105
S'Undisclosed'
p106
sS'Stage'
p107
S'No Known Funding'
p108
ssg3
(lp109
Vsiftery
p110
aVadobe-typekit
p111
aVdocusign
p112
aVgoogle-apps-for-work
p113
aVgoogle-drive
p114
aVskype
p115
aVamazon-route-53
p116
aVatlassian-confluence
p117
aVgoogle-adwords
p118
aVatlassian-jira
p119
aVbuffer
p120
aVoptimizely
p121
aVadobe-flash
p122
aVadroll
p123
aVmailchimp
p124
aVsalesforce-sales-cloud
p125
aVnginx
p126
aVamazon-ses
p127
aVdropbox
p128
aVamazon-ec2
p129
aVsegment
p130
aVnew-relic
p131
aVgithub
p132
aVslack
p133
aVnorbert
p134
aVatlassian-bitbucket
p135
aVgoogle-tag-manager
p136
aVgoogle-analytics
p137
asg79
(lp138
S'B2B'
p139
assS'kitedesk'
p140
(dp141
g10
(dp142
S'Acquisitions'
p143
S'0'
p144
sS'Growth score'
p145
S'294'
p146
sS'Mindshare score'
p147
S'229'
p148
sS'Employees'
p149
S'31'
p150
sS'Last funding'
p151
S'5 months ago'
p152
sS'Founded'
p153
S'2011'
p154
sS'Location'
p155
S'Tampa'
p156
sS'Total funding'
p157
S'$6M'
p158
sS'Stage'
p159
S'Pre-Series A'
p160
ssg3
(lp161
Vangellist-jobs
p162
aVadobe-typekit
p163
aVdocusign
p164
aVfullcontact
p165
aVmicrosoft-office-365
p166
aVyahoo-analytics-flurry
p167
aVoptinmonster
p168
aVneo4j
p169
aVamazon-route-53
p170
aVsalesforce-marketing-cloud
p171
aVquantcast-measure
p172
aVrecurly
p173
aVleandata
p174
aVapache-web-server
p175
aVsiftery
p176
aVzoominfo
p177
aVwordpress
p178
aVsurveymonkey
p179
aVadobe-talent-behance-jobs
p180
aVgodaddy-ssl
p181
aVbxslider
p182
aVsalesforce-pardot
p183
aVgoogle-apps-for-work
p184
aVsalesforceiq-crm
p185
aVbuffer
p186
aVintercom
p187
aVadroll
p188
aVsalesforce-sales-cloud
p189
aVapttus
p190
aVenom-domain-registration
p191
aVhtml5
p192
aVamazon-ses
p193
aVcitrix-gotomeeting
p194
aVdropbox
p195
aVdisqus
p196
aVtoutapp
p197
aVjquery
p198
aVetrigue
p199
aVslack
p200
aVifttt
p201
aVgoogle-maps
p202
aVleadlander
p203
aVgoogle-fonts
p204
aVgoogle-tag-manager
p205
aVinsideview
p206
aVzendesk
p207
aVgoogle-analytics
p208
aVmarkmonitor-domain-management
p209
asg79
(lp210
S'B2B'
p211
aS'Direct Sales'
p212
aS'SaaS'
p213
aS'Cloud Computing'
p214
aS'Enterprise Software'
p215
aS'Finance'
p216
aS'Human Resources Hr'
p217
aS'Marketing'
p218
aS'Real Estate'
p219
assS'quri'
p220
(dp221
g10
(dp222
S'Acquisitions'
p223
S'0'
p224
sS'Growth score'
p225
S'83'
p226
sS'Mindshare score'
p227
S'102'
p228
sS'Employees'
p229
S'66'
p230
sS'Last funding'
p231
S'a year ago'
p232
sS'Founded'
p233
S'2010'
p234
sS'Location'
p235
S'Bay Area'
p236
sS'Total funding'
p237
S'$31M'
p238
sS'Stage'
p239
S'Series C'
p240
ssg3
(lp241
Vmixpanel
p242
aVangellist-jobs
p243
aVsalesforce-app-cloud
p244
aVnetwork-solutions-hosting
p245
aVengagio
p246
aVaddtoany
p247
aVapache-web-server
p248
aVmarketo
p249
aVmandrill
p250
aVsiftery
p251
aVzoominfo
p252
aVwordpress
p253
aVgodaddy-ssl
p254
aVgoogle-apps-for-work
p255
aVnetwork-solutions-domain-registration
p256
aVadroll
p257
aVslack
p258
aVgoogle-maps
p259
aVbootstrap
p260
aVmedia-temple-hosting
p261
aVintuit-quickbooks
p262
aVlever
p263
aVgoogle-analytics
p264
asg79
(lp265
S'B2B'
p266
aS'Analytics'
p267
aS'Enterprise Software'
p268
aS'Marketing'
p269
aS'Mobile'
p270
aS'Retail'
p271
assS'eshares'
p272
(dp273
g10
(dp274
S'Acquisitions'
p275
S'0'
p276
sS'Growth score'
p277
S'75'
p278
sS'Mindshare score'
p279
S'75'
p280
sS'Employees'
p281
S''
p282
sS'Last funding'
p283
g100
sS'Founded'
p284
g100
sS'Location'
p285
S'Florida'
p286
sS'Total funding'
p287
S'Undisclosed'
p288
sS'Stage'
p289
S'No Known Funding'
p290
ssg3
(lp291
Vsiftery
p292
aVmixpanel
p293
aVangellist-jobs
p294
aVadobe-typekit
p295
aVhelp-scout
p296
aVbridge-us
p297
aVrainforest-qa
p298
aVnamely
p299
aVmedium
p300
aVxero
p301
aVlinkedin-ads
p302
aVfenwick-west
p303
aVkidder-mathews-tenant-advisory-services
p304
aVmandrill
p305
aVchatra
p306
aVcomodo-ssl
p307
aVmongodb
p308
aVcloudflare
p309
aVbox
p310
aVgoogle-apps-for-work
p311
aVatlassian-jira
p312
aVcalendly
p313
aVpython
p314
aVintercom
p315
aVrecaptcha
p316
aVadobe-flash
p317
aVadroll
p318
aVmailchimp
p319
aVsalesforce-sales-cloud
p320
aVnginx
p321
aVexpensify
p322
aVenom-domain-registration
p323
aVstripe
p324
aVsegment
p325
aVjquery
p326
aVnew-relic
p327
aVgoogle-drive
p328
aVcooley
p329
aVpostgresql
p330
aVslack
p331
aVlooker
p332
aVgusto
p333
aVdjango
p334
aVjavascript
p335
aVgoogle-analytics
p336
asg79
(lp337
S'B2B'
p338
aS'Marketplace'
p339
aS'Crowdfunding'
p340
aS'Finance'
p341
assS'yofitness'
p342
(dp343
g3
(dp344
ssS'asiainspection'
p345
(dp346
g10
(dp347
S'Acquisitions'
p348
S'0'
p349
sS'Growth score'
p350
S'98'
p351
sS'Mindshare score'
p352
S'98'
p353
sS'Employees'
p354
S'466'
p355
sS'Last funding'
p356
g100
sS'Founded'
p357
S'2005'
p358
sS'Location'
p359
S'Hong Kong'
p360
sS'Total funding'
p361
S'Undisclosed'
p362
sS'Stage'
p363
S'No Known Funding'
p364
ssg3
(lp365
Vgoogle-cloud-messaging
p366
aVapache-commons
p367
aVadobe-marketing-cloud
p368
aVmicrosoft-office-365
p369
aVparse-analytics
p370
aVtableau-software
p371
aVapache-web-server
p372
aVmarketo
p373
aVbime
p374
aVadobe-analytics
p375
aVsiftery
p376
aVasana
p377
aVhubspot-marketing-platform
p378
aVsurveymonkey
p379
aVhootsuite
p380
aVbenchmark
p381
aVcriteo
p382
aVzoho-crm
p383
aVgoogle-apps-for-work
p384
aVapp-annie
p385
aVnetwork-solutions-domain-registration
p386
aVadroll
p387
aVavature
p388
aVmention
p389
aVamazon-ses
p390
aVdropbox
p391
aVmicrosoft-outlook
p392
aVslack
p393
aVifttt
p394
aVgoogle-maps
p395
aVbootstrap
p396
aVgoogle-tag-manager
p397
aVadjust
p398
aVneustar-ultradns
p399
aVparse-core
p400
aVgoogle-analytics
p401
aVzoho-campaigns
p402
asg79
(lp403
S'B2B'
p404
aS'Transportation'
p405
assS'beautylish'
p406
(dp407
g10
(dp408
S'Acquisitions'
p409
S'0'
p410
sS'Growth score'
p411
S'157'
p412
sS'Mindshare score'
p413
S'95'
p414
sS'Employees'
p415
S'64'
p416
sS'Last funding'
p417
S'3 years ago'
p418
sS'Founded'
p419
S'2010'
p420
sS'Location'
p421
S'Bay Area'
p422
sS'Total funding'
p423
S'$9M'
p424
sS'Stage'
p425
S'Pre-Series A'
p426
ssg3
(lp427
Vunderscorejs
p428
aVangellist-jobs
p429
aVapache-commons
p430
aVmodernizr
p431
aVbackbonejs
p432
aVgoogle-drive
p433
aVgreenhouse
p434
aVamazon-route-53
p435
aVzenefits
p436
aVrollbar
p437
aVamazon-cloudfront
p438
aVtalkdesk
p439
aVsendgrid
p440
aVsiftery
p441
aVeshares
p442
aVgoogle-wallet
p443
aVolark
p444
aVcomodo-ssl
p445
aVrjmetrics
p446
aVgoogle-apps-for-work
p447
aVpaypal
p448
aVpython
p449
aVjavascript
p450
aVadroll
p451
aVmailchimp
p452
aVnginx
p453
aVexpensify
p454
aVenom-domain-registration
p455
aVamazon-ses
p456
aVamazon-ec2
p457
aVslack
p458
aVbox
p459
aVnew-relic
p460
aVgithub
p461
aVopenpay
p462
aVmailgun
p463
aVgoogle-maps
p464
aVsift-science
p465
aVgusto
p466
aVbraintree-payments
p467
aVintuit-quickbooks
p468
aVzendesk
p469
aVindicative
p470
aVgoogle-analytics
p471
aVrequirejs
p472
asg79
(lp473
S'B2C'
p474
aS'E-Commerce'
p475
aS'Fashion'
p476
aS'Mobile'
p477
assS'socrata'
p478
(dp479
g10
(dp480
S'Acquisitions'
p481
S'0'
p482
sS'Growth score'
p483
S'291'
p484
sS'Mindshare score'
p485
S'142'
p486
sS'Employees'
p487
S'167'
p488
sS'Last funding'
p489
S'2 years ago'
p490
sS'Founded'
p491
S'2007'
p492
sS'Location'
p493
S'Seattle'
p494
sS'Total funding'
p495
S'$55M'
p496
sS'Stage'
p497
S'Series C'
p498
ssg3
(lp499
Vinfluitive
p500
aVsiftery
p501
aVangellist-jobs
p502
aVdyn-dns
p503
aVmodernizr
p504
aVmicrosoft-office-365
p505
aVchef
p506
aVgoogle-drive
p507
aVengagio
p508
aVmcafee-saas
p509
aVmarketo
p510
aVdisqus
p511
aVwp-engine
p512
aVoutbrain
p513
aVcirrus-insight
p514
aVsendgrid
p515
aVlinode
p516
aVgeotrust-ssl
p517
aVliveperson
p518
aVjobvite
p519
aVdocusign
p520
aVolark
p521
aVwordpress
p522
aVsurveymonkey
p523
aVgodaddy-domain-registration
p524
aVhootsuite
p525
aVfme-by-safe
p526
aVjquery
p527
aVgoogle-apps-for-work
p528
aVjavascript
p529
aVoptimizely
p530
aVadobe-flash
p531
aVadroll
p532
aVmention
p533
aVfivetran
p534
aVcampaign-calendar
p535
aVdropbox
p536
aVphp
p537
aVgoogle-custom-search
p538
aVon24
p539
aVslack
p540
aVnginx
p541
aVgoogle-maps
p542
aVbootstrap
p543
aVgoogle-fonts
p544
aVgoogle-tag-manager
p545
aVcampaign-monitor
p546
aVzendesk
p547
aVgoogle-analytics
p548
aVfull-circle-insights
p549
asg79
(lp550
S'B2B'
p551
aS'SaaS'
p552
aS'Analytics'
p553
aS'Cloud Computing'
p554
aS'Enterprise Software'
p555
aS'Government'
p556
assS'mayvenn'
p557
(dp558
g10
(dp559
S'Acquisitions'
p560
S'0'
p561
sS'Growth score'
p562
S'789'
p563
sS'Mindshare score'
p564
S'360'
p565
sS'Employees'
p566
S'170'
p567
sS'Last funding'
p568
S'a year ago'
p569
sS'Founded'
p570
S'2013'
p571
sS'Location'
p572
S'Bay Area'
p573
sS'Total funding'
p574
S'$16M'
p575
sS'Stage'
p576
S'Series A'
p577
ssg3
(lp578
Vangellist-jobs
p579
aVsumo-logic
p580
aVwistia
p581
aVmaxcdn
p582
aVtypeform
p583
aVhoneybadger
p584
aVamazon-route-53
p585
aVdigicert
p586
aVconvert-experiences
p587
aVpivotal-tracker
p588
aVtalkdesk
p589
aVruby-on-rails
p590
aVstripe
p591
aVsiftery
p592
aVtalkable
p593
aVamazon-redshift
p594
aVasana
p595
aVwoopra
p596
aVbugsnag
p597
aVgoogle-apps-for-work
p598
aVoptimizely
p599
aVadroll
p600
aVmailchimp
p601
aVinvision
p602
aVenom-domain-registration
p603
aVsprinklr
p604
aVamazon-ec2
p605
aVsegment
p606
aVgithub
p607
aVpagerduty
p608
aVslack
p609
aVlooker
p610
aVmandrill
p611
aVgoogle-tag-manager
p612
aVamazon-dynamodb
p613
aVzendesk
p614
aVsonar
p615
aVget-satisfaction
p616
aVgoogle-analytics
p617
aVbrowserstack
p618
aVriskified
p619
asg79
(lp620
S'B2B'
p621
aS'E-Commerce'
p622
aS'Real Estate'
p623
aS'Retail'
p624
assS'app-annie'
p625
(dp626
g10
(dp627
S'Acquisitions'
p628
S'3'
p629
sS'Growth score'
p630
S'714'
p631
sS'Mindshare score'
p632
S'355'
p633
sS'Employees'
p634
S'530'
p635
sS'Last funding'
p636
S'8 months ago'
p637
sS'Founded'
p638
S'2010'
p639
sS'Location'
p640
S'Bay Area'
p641
sS'Total funding'
p642
S'$157M'
p643
sS'Stage'
p644
S'Late'
p645
ssg3
(dp646
sg79
(lp647
S'B2B'
p648
aS'Analytics'
p649
aS'Enterprise Software'
p650
aS'Marketing'
p651
aS'Marketing Analytics'
p652
aS'Mobile'
p653
assS'click-perform'
p654
(dp655
g3
(dp656
ssS'social-mafia'
p657
(dp658
g3
(dp659
ssS'zapstitch'
p660
(dp661
g3
(dp662
ssS'the-social-edge'
p663
(dp664
g10
(dp665
S'Acquisitions'
p666
S'0'
p667
sS'Growth score'
p668
S'2'
p669
sS'Mindshare score'
p670
S'2'
p671
sS'Employees'
p672
g282
sS'Last funding'
p673
g100
sS'Founded'
p674
g100
sS'Location'
p675
g282
sS'Total funding'
p676
S'Undisclosed'
p677
sS'Stage'
p678
S'No Known Funding'
p679
ssg3
(dp680
sg79
(lp681
ssS'snapapp'
p682
(dp683
g10
(dp684
S'Acquisitions'
p685
S'0'
p686
sS'Growth score'
p687
S'269'
p688
sS'Mindshare score'
p689
S'89'
p690
sS'Employees'
p691
S'78'
p692
sS'Last funding'
p693
S'10 months ago'
p694
sS'Founded'
p695
S'2006'
p696
sS'Location'
p697
S'Boston'
p698
sS'Total funding'
p699
S'$12M'
p700
sS'Stage'
p701
S'Series A'
p702
ssg3
(lp703
Vsalesloft
p704
aVbuzzsumo
p705
aVdocusign
p706
aVwistia
p707
aVmicrosoft-office-365
p708
aVsumome
p709
aVhubspot-sales
p710
aVmineraltree
p711
aVoptinmonster
p712
aVamazon-route-53
p713
aVzenefits
p714
aVmarketo
p715
aVdisqus
p716
aVsendgrid
p717
aVsiftery
p718
aVtotango
p719
aVgodaddy-domain-registration
p720
aVreadytalk
p721
aVgoogle-apps-for-work
p722
aVatlassian-jira
p723
aVadroll
p724
aVoptimizely
p725
aVdrift
p726
aVsalesforce-sales-cloud
p727
aVfreshservice
p728
aVmicrosoft-outlook
p729
aVbraintree-payments
p730
aVinsightsquared
p731
aVamazon-ec2
p732
aVlivechat
p733
aVslack
p734
aVjquery
p735
aVgithub
p736
aVuberflip
p737
aVnginx
p738
aVdrupal
p739
aVbootstrap
p740
aVgoogle-analytics
p741
aVwebex-from-cisco
p742
asg79
(lp743
S'B2B'
p744
aS'SaaS'
p745
aS'Advertising'
p746
aS'Analytics'
p747
aS'Enterprise Software'
p748
aS'Marketing'
p749
assS'conversionex'
p750
(dp751
g3
(dp752
ssS'hiringthing'
p753
(dp754
g10
(dp755
S'Acquisitions'
p756
S'0'
p757
sS'Growth score'
p758
S'169'
p759
sS'Mindshare score'
p760
S'168'
p761
sS'Employees'
p762
S'7'
p763
sS'Last funding'
p764
S'5 years ago'
p765
sS'Founded'
p766
S'2012'
p767
sS'Location'
p768
S'Portland'
p769
sS'Total funding'
p770
S'$1M'
p771
sS'Stage'
p772
S'Pre-Series A'
p773
ssg3
(lp774
Vtrello
p775
aVfreshdesk
p776
aVadobe-typekit
p777
aVamazon-route-53
p778
aVchargify
p779
aVact-on
p780
aVdynadot-domain-registration
p781
aVsharethis
p782
aVsiftery
p783
aVwordpress
p784
aVcomodo-ssl
p785
aVhootsuite
p786
aVautopilot
p787
aVoptimizely
p788
aVgoogle-apps-for-work
p789
aVrecaptcha
p790
aVadroll
p791
aVnginx
p792
aVauthorizenet
p793
aVdropbox
p794
aVdisqus
p795
aVslack
p796
aVjquery
p797
aVnew-relic
p798
aVgrowth-geeks
p799
aVzapier
p800
aVbootstrap
p801
aVgoogle-fonts
p802
aVgoogle-analytics
p803
aVgoogle-compute-engine
p804
aVsalesforce-service-cloud
p805
asg79
(lp806
S'B2B'
p807
aS'Analytics'
p808
aS'Career / Job Search'
p809
aS'Human Resources'
p810
aS'Human Resources Hr'
p811
aS'Social Networking'
p812
assS'lawrence-schiller'
p813
(dp814
g3
(dp815
ssS'zemanta'
p816
(dp817
g10
(dp818
S'Acquisitions'
p819
S'0'
p820
sS'Growth score'
p821
S'-47'
p822
sS'Mindshare score'
p823
S'-45'
p824
sS'Employees'
p825
S'29 '
p826
sS'Last funding'
p827
S'3 years ago'
p828
sS'Founded'
p829
S'2007'
p830
sS'Location'
p831
S'London'
p832
sS'Total funding'
p833
S'$7M'
p834
sS'Stage'
p835
S'Acquired'
p836
ssg3
(lp837
Vsquarespace
p838
aVmixpanel
p839
aVadobe-typekit
p840
aVdistil-networks
p841
aVsumome
p842
aVcakehr
p843
aVjava
p844
aVgoogle-fonts
p845
aVsiftery
p846
aVwebpack
p847
aVgodaddy-domain-registration
p848
aVworkable
p849
aVcloudflare
p850
aVgodaddy-ssl
p851
aVgoogle-apps-for-work
p852
aVintercom
p853
aVadroll
p854
aVsalesforce-sales-cloud
p855
aVnginx
p856
aVexpensify
p857
aVamazon-ses
p858
aVsqurb
p859
aVdropbox
p860
aVadsnative-exchange
p861
aVnew-relic
p862
aVgithub
p863
aVslack
p864
aVmailgun
p865
aVgoogle-maps
p866
aVgoogle-tag-manager
p867
aVintuit-quickbooks
p868
aVscripted
p869
aVlever
p870
aVgoogle-analytics
p871
asg79
(lp872
S'B2B'
p873
aS'Advertising'
p874
aS'Enterprise Software'
p875
aS'Marketing'
p876
aS'Media'
p877
assS'red-sky'
p878
(dp879
g10
(dp880
S'Acquisitions'
p881
S'0'
p882
sS'Growth score'
p883
S'3'
p884
sS'Mindshare score'
p885
S'3'
p886
sS'Employees'
p887
g282
sS'Last funding'
p888
g100
sS'Founded'
p889
g100
sS'Location'
p890
S'Szczecin'
p891
sS'Total funding'
p892
S'Undisclosed'
p893
sS'Stage'
p894
S'No Known Funding'
p895
ssg3
(lp896
Vnew-relic
p897
aVgoogle-apps-for-work
p898
aVsiftery
p899
aVtrello
p900
aVbuffer
p901
aVoptimizely
p902
aVdoorbell
p903
aVadroll
p904
aVhootsuite
p905
aVnginx
p906
aVzendesk
p907
aVdropbox
p908
aVadobe-edge-web-fonts
p909
asg79
(lp910
ssS'invoate'
p911
(dp912
g10
(dp913
S'Acquisitions'
p914
S'0'
p915
sS'Growth score'
p916
S'36'
p917
sS'Mindshare score'
p918
S'36'
p919
sS'Employees'
p920
g282
sS'Last funding'
p921
g100
sS'Founded'
p922
S'2015'
p923
sS'Location'
p924
S'Atlanta'
p925
sS'Total funding'
p926
S'Undisclosed'
p927
sS'Stage'
p928
S'No Known Funding'
p929
ssg3
(lp930
Vbootstrap
p931
aVapache-web-server
p932
aVgit
p933
aVruby-on-rails
p934
aVgoogle-fonts
p935
aVsiftery
p936
aVheroku
p937
aVwordpress
p938
aVcomodo-ssl
p939
aVgoogle-apps-for-work
p940
aVmedium
p941
aVbreezy-hr
p942
aVmongodb
p943
aVdoorbell
p944
aVadroll
p945
aVcodeship
p946
aVinvision
p947
aVbower
p948
aVgithub
p949
aVslack
p950
aVnamecheap-web-hosting
p951
aVatlassian-bitbucket
p952
aVgoogle-tag-manager
p953
aVgoogle-analytics
p954
aVrawgit
p955
asg79
(lp956
S'B2B'
p957
aS'Consulting'
p958
aS'Software Development'
p959
assS'praber'
p960
(dp961
g10
(dp962
S'Acquisitions'
p963
S'0'
p964
sS'Growth score'
p965
S'24'
p966
sS'Mindshare score'
p967
S'24'
p968
sS'Employees'
p969
g282
sS'Last funding'
p970
g100
sS'Founded'
p971
g100
sS'Location'
p972
g282
sS'Total funding'
p973
S'Undisclosed'
p974
sS'Stage'
p975
S'No Known Funding'
p976
ssg3
(lp977
Vlayer
p978
aVbugherd
p979
aVuservoice
p980
aVheap
p981
aVfreshdesk
p982
aVsiftery
p983
aVpaypal
p984
aVklaviyo
p985
aVinspectlet
p986
aVelevio
p987
aVtapstream
p988
aVdropbox
p989
aVmixpanel
p990
aVamazon-route-53
p991
aVpingdom
p992
aVgeotrust-ssl
p993
aVtaplytics
p994
aVquantcast-measure
p995
aVoutbound
p996
aVgauges
p997
aVgoogle-fonts
p998
aVimprovely
p999
aVkissmetrics
p1000
aVextole
p1001
aVtrakio
p1002
aVmarin-audience-marketing-suite
p1003
aVerrorception
p1004
aVuserlike
p1005
aVolark
p1006
aVhubspot-marketing-platform
p1007
aVlucky-orange
p1008
aVnginx
p1009
aVhello-bar
p1010
aVravenjs
p1011
aVmouseflow
p1012
aVlytics
p1013
aVsatismeter
p1014
aVfullstory
p1015
aVgoogle-apps-for-work
p1016
aVatlassian-jira
p1017
aVwoopra
p1018
aVbuffer
p1019
aVintercom
p1020
aVwebengage
p1021
aVclicky
p1022
aVadroll
p1023
aVappcues
p1024
aVmention
p1025
aVclicktale
p1026
aVcustomerio
p1027
aVyandex-metrica
p1028
aVlivechat
p1029
aVevergage
p1030
aVrollbar
p1031
aVsegment
p1032
aVbronto
p1033
aVjquery
p1034
aVperfect-audience
p1035
aVinvision
p1036
aVgoogle-maps
p1037
aVnamecom-hosting
p1038
aVdrip
p1039
aVchartbeat
p1040
aVnudgespot
p1041
aVblueshift
p1042
aVgoogle-tag-manager
p1043
aVtrello
p1044
aVgoogle-analytics
p1045
aVmousestats
p1046
aVhotjar
p1047
aVstripe
p1048
asg79
(lp1049
S'Marketplace'
p1050
aS'Mobile'
p1051
assS'epoxy'
p1052
(dp1053
g3
(dp1054
ssS'lever'
p1055
(dp1056
g3
(dp1057
ssS'webmerge'
p1058
(dp1059
g3
(dp1060
ssS'flint-group-1'
p1061
(dp1062
g10
(dp1063
S'Acquisitions'
p1064
S'0'
p1065
sS'Growth score'
p1066
S'27'
p1067
sS'Mindshare score'
p1068
S'27'
p1069
sS'Employees'
p1070
g282
sS'Last funding'
p1071
g100
sS'Founded'
p1072
S'1946'
p1073
sS'Location'
p1074
S'Fargo'
p1075
sS'Total funding'
p1076
S'Undisclosed'
p1077
sS'Stage'
p1078
S'No Known Funding'
p1079
ssg3
(lp1080
Vunbounce
p1081
aVadobe-marketing-cloud
p1082
aVbox
p1083
aVdigicert
p1084
aVapache-web-server
p1085
aVsiftery
p1086
aVwordpress
p1087
aVsurveymonkey
p1088
aVhootsuite
p1089
aVmicrosoft-dynamics-crm
p1090
aVmoz
p1091
aVmicrosoft-office-365
p1092
aVmodernizr
p1093
aVbuffer
p1094
aVcrazyegg
p1095
aVadroll
p1096
aVaddthis
p1097
aVdropbox
p1098
aVofferpop
p1099
aVjquery
p1100
aVyahoo-ui-library
p1101
aVmicrosoft-outlook
p1102
aVifttt
p1103
aVzapier
p1104
aVibm-marketing-cloud-formerly-silverpop
p1105
aVgoogle-tag-manager
p1106
aVarkadin
p1107
aVgoogle-analytics
p1108
asg79
(lp1109
ssS'pazarlamasyon'
p1110
(dp1111
g10
(dp1112
S'Acquisitions'
p1113
S'0'
p1114
sS'Growth score'
p1115
S'233'
p1116
sS'Mindshare score'
p1117
S'233'
p1118
sS'Employees'
p1119
S'23'
p1120
sS'Last funding'
p1121
g100
sS'Founded'
p1122
S'2011'
p1123
sS'Location'
p1124
S'Istanbul'
p1125
sS'Total funding'
p1126
S'Undisclosed'
p1127
sS'Stage'
p1128
S'No Known Funding'
p1129
ssg3
(lp1130
Vtrello
p1131
aVadobe-marketing-cloud
p1132
aVsumome
p1133
aVtypepad
p1134
aVquantcast-measure
p1135
aVgoogle-fonts
p1136
aVgleam
p1137
aVsiftery
p1138
aVgeotrust-ssl
p1139
aVwordpress
p1140
aVsurveymonkey
p1141
aVhootsuite
p1142
aVcriteo
p1143
aVmoz
p1144
aVmicrosoft-office-365
p1145
aVkenshoo
p1146
aVbuffer
p1147
aVadroll
p1148
aVmention
p1149
aVdropbox
p1150
aVdisqus
p1151
aVyandex-mail
p1152
aVbox
p1153
aVifttt
p1154
aVzapier
p1155
aVgoogle-tag-manager
p1156
aVdigitalocean
p1157
aVonesignal
p1158
aVgoogle-analytics
p1159
asg79
(lp1160
ssS'tawipay'
p1161
(dp1162
g10
(dp1163
S'Acquisitions'
p1164
S'0'
p1165
sS'Growth score'
p1166
S'179'
p1167
sS'Mindshare score'
p1168
S'172'
p1169
sS'Employees'
p1170
S'11'
p1171
sS'Last funding'
p1172
S'10 months ago'
p1173
sS'Founded'
p1174
S'2013'
p1175
sS'Location'
p1176
S'Lausanne'
p1177
sS'Total funding'
p1178
S'$420K'
p1179
sS'Stage'
p1180
S'Pre-Series A'
p1181
ssg3
(lp1182
Viubenda
p1183
aVmixpanel
p1184
aVtextmaster
p1185
aVangellist-jobs
p1186
aVwistia
p1187
aVadespresso
p1188
aVtypeform
p1189
aVxero
p1190
aVmysql
p1191
aVapache-web-server
p1192
aVsiftery
p1193
aVphp
p1194
aVchatra
p1195
aVteamsnippets
p1196
aVwordpress
p1197
aVopentest
p1198
aVgoogle-apps-for-work
p1199
aVlinkedin-recruiter
p1200
aVpodio
p1201
aVuserbrain
p1202
aVjavascript
p1203
aVadroll
p1204
aVaddthis
p1205
aVinvision
p1206
aVamazon-ec2
p1207
aVsegment
p1208
aVmention
p1209
aVhotjar
p1210
aVbootstrap
p1211
aVusabilityhub
p1212
aVgoogle-tag-manager
p1213
aVgoogle-analytics
p1214
aVgroove
p1215
asg79
(lp1216
S'B2C'
p1217
aS'Finance'
p1218
aS'Payments'
p1219
assS'salesloft'
p1220
(dp1221
g10
(dp1222
S'Acquisitions'
p1223
S'0'
p1224
sS'Growth score'
p1225
S'686'
p1226
sS'Mindshare score'
p1227
S'525'
p1228
sS'Employees'
p1229
S'116'
p1230
sS'Last funding'
p1231
S'a year ago'
p1232
sS'Founded'
p1233
S'2011'
p1234
sS'Location'
p1235
S'Atlanta'
p1236
sS'Total funding'
p1237
S'$10M'
p1238
sS'Stage'
p1239
S'Series A'
p1240
ssg3
(lp1241
Vinfluitive
p1242
aVsiftery
p1243
aVuservoice
p1244
aVcustomerio
p1245
aVadobe-typekit
p1246
aVwistia
p1247
aVmodernizr
p1248
aVexecvision
p1249
aViconixx
p1250
aVcallrail
p1251
aVjoinme
p1252
aVamazon-route-53
p1253
aVsalesforce-marketing-cloud
p1254
aVrecruiterbox
p1255
aVcaptora
p1256
aVamazon-ec2
p1257
aVmandrill
p1258
aVleandata
p1259
aVsendgrid
p1260
aVwideangle
p1261
aVwordpress
p1262
aVsurveymonkey
p1263
aVcalendly
p1264
aVintercom
p1265
aV15five
p1266
aVfullstory
p1267
aVsalesforce-pardot
p1268
aVgoogle-apps-for-work
p1269
aVsalesforceiq-crm
p1270
aVcomodo-ssl
p1271
aVhello-bar
p1272
aVoptimizely
p1273
aVadroll
p1274
aVmailchimp
p1275
aVsalesforce-sales-cloud
p1276
aVzopim
p1277
aVdisqus
p1278
aVrigor
p1279
aVstripe
p1280
aVsigstr
p1281
aVdiscoverorg
p1282
aVphp
p1283
aVsegment
p1284
aVlinkedin-sales-navigator
p1285
aVjquery
p1286
aVterminus
p1287
aVslack
p1288
aVnginx
p1289
aVtrello
p1290
aVenom-domain-registration
p1291
aVexpensify
p1292
aVprofitwell
p1293
aVinsideview
p1294
aVzendesk
p1295
aVbizible
p1296
aVuseriq
p1297
aVgoogle-analytics
p1298
aVrightsignature
p1299
asg79
(lp1300
S'B2B'
p1301
aS'Lead Generation'
p1302
aS'SaaS'
p1303
aS'Enterprise Software'
p1304
aS'Finance'
p1305
aS'Marketing'
p1306
assS'emotient'
p1307
(dp1308
g10
(dp1309
S'Acquisitions'
p1310
S'0'
p1311
sS'Growth score'
p1312
S'151'
p1313
sS'Mindshare score'
p1314
S'136'
p1315
sS'Employees'
p1316
S'26'
p1317
sS'Last funding'
p1318
S'3 years ago'
p1319
sS'Founded'
p1320
S'2012'
p1321
sS'Location'
p1322
S'San Diego'
p1323
sS'Total funding'
p1324
S'$6M'
p1325
sS'Stage'
p1326
S'Acquired'
p1327
ssg3
(lp1328
Vgoogle-apps-for-work
p1329
aVatlassian-jira
p1330
aVlinkedin-recruiter
p1331
aVgodaddy-domain-registration
p1332
aVmandrill
p1333
aVgoogle-fonts
p1334
aVoptimizely
p1335
aVsiftery
p1336
aVadroll
p1337
aVmailchimp
p1338
aVsalesforce-sales-cloud
p1339
aVdocusign
p1340
aVgithub
p1341
aVwordpress
p1342
aVamazon-ses
p1343
aVcitrix-gotomeeting
p1344
aVintuit-quickbooks
p1345
aVamazon-route-53
p1346
aVamazon-ec2
p1347
aVapache-web-server
p1348
asg79
(lp1349
S'B2B'
p1350
aS'Advertising'
p1351
aS'Marketing'
p1352
aS'Professional Services'
p1353
assS'krossover'
p1354
(dp1355
g10
(dp1356
S'Acquisitions'
p1357
S'0'
p1358
sS'Growth score'
p1359
S'127'
p1360
sS'Mindshare score'
p1361
S'102'
p1362
sS'Employees'
p1363
S'239'
p1364
sS'Last funding'
p1365
S'5 months ago'
p1366
sS'Founded'
p1367
S'2009'
p1368
sS'Location'
p1369
S'New York'
p1370
sS'Total funding'
p1371
S'$28M'
p1372
sS'Stage'
p1373
S'Series B'
p1374
ssg3
(lp1375
Vfreshbooks
p1376
aVatlassian-bitbucket
p1377
aVtrello
p1378
aVangellist-jobs
p1379
aVadobe-typekit
p1380
aVxcode
p1381
aVangular-material
p1382
aVtrustpilot
p1383
aVsublime-text
p1384
aVgoogle-drive
p1385
aVtypeform
p1386
aVperiscope
p1387
aVangularjs
p1388
aVmysql
p1389
aVmixpanel
p1390
aVamazon-route-53
p1391
aVzenefits
p1392
aVhipchat
p1393
aVphp
p1394
aVcloseio
p1395
aVmarketo
p1396
aVgit
p1397
aVtellapart
p1398
aVmailjet
p1399
aVsalesforce-deskcom
p1400
aVsiftery
p1401
aVvagrant
p1402
aVwufoo
p1403
aVgeotrust-ssl
p1404
aVsplash
p1405
aVwordpress
p1406
aVhootsuite
p1407
aVsprout-social
p1408
aVgoogle-apps-for-work
p1409
aVmongodb
p1410
aVjavascript
p1411
aVadroll
p1412
aVmailchimp
p1413
aVnginx
p1414
aVapache-http-server
p1415
aVenom-domain-registration
p1416
aVhtml5
p1417
aVatom
p1418
aVgrunt
p1419
aVsegment
p1420
aVgoogle-analytics
p1421
aVappcues
p1422
aVgithub
p1423
aVzapier
p1424
aVbootstrap
p1425
aVgitprime
p1426
aVgusto
p1427
aVdocker
p1428
asg79
(lp1429
S'B2B'
p1430
aS'B2C'
p1431
aS'Analytics'
p1432
aS'Entertainment'
p1433
aS'Gaming'
p1434
aS'Mobile'
p1435
assS'welab'
p1436
(dp1437
g10
(dp1438
S'Acquisitions'
p1439
S'0'
p1440
sS'Growth score'
p1441
S'0'
p1442
sS'Mindshare score'
p1443
S'0'
p1444
sS'Employees'
p1445
g282
sS'Last funding'
p1446
g100
sS'Founded'
p1447
g100
sS'Location'
p1448
g282
sS'Total funding'
p1449
S'Undisclosed'
p1450
sS'Stage'
p1451
S'No Known Funding'
p1452
ssg3
(lp1453
Vbootstrap
p1454
aVtrello
p1455
aVsiftery
p1456
aVamazon-rds
p1457
aVgoogle-apps-for-work
p1458
aVcowboy-web-server
p1459
aVhaml
p1460
aVdnsimple
p1461
aVmicrosoft-outlook
p1462
aVgit
p1463
aVcircleci
p1464
aVruby-on-rails
p1465
aVlucky-orange
p1466
aVcoffeescript
p1467
aVheroku
p1468
aVwordpress
p1469
aVmongodb
p1470
aVcloudflare
p1471
aVgoogle-adwords
p1472
aVmongolab
p1473
aVintercom
p1474
aVoptimizely
p1475
aVreactjs
p1476
aVadroll
p1477
aVmailchimp
p1478
aVinvision
p1479
aVsessioncam
p1480
aVtwilio
p1481
aVamazon-ec2
p1482
aVruby
p1483
aVgoogle-analytics
p1484
aVjquery
p1485
aVnew-relic
p1486
aVgithub
p1487
aVpostgresql
p1488
aVslack
p1489
aVsass
p1490
aVnginx
p1491
aVmandrill
p1492
aVraygun
p1493
aVbing-ads
p1494
aVamazon-s3
p1495
asg79
(lp1496
ssS'health-sherpa'
p1497
(dp1498
g10
(dp1499
S'Acquisitions'
p1500
S'0'
p1501
sS'Growth score'
p1502
S'-142'
p1503
sS'Mindshare score'
p1504
S'-142'
p1505
sS'Employees'
p1506
g282
sS'Last funding'
p1507
g100
sS'Founded'
p1508
S'2012'
p1509
sS'Location'
p1510
S'Bay Area'
p1511
sS'Total funding'
p1512
S'Undisclosed'
p1513
sS'Stage'
p1514
S'Pre-Series A'
p1515
ssg3
(dp1516
sg79
(lp1517
S'B2C'
p1518
aS'Finance'
p1519
aS'Healthcare'
p1520
aS'Insurance'
p1521
assS'sociable-labs'
p1522
(dp1523
g10
(dp1524
S'Acquisitions'
p1525
S'0'
p1526
sS'Growth score'
p1527
S'-69'
p1528
sS'Mindshare score'
p1529
S'-55'
p1530
sS'Employees'
p1531
S'25'
p1532
sS'Last funding'
p1533
S'5 years ago'
p1534
sS'Founded'
p1535
S'2014'
p1536
sS'Location'
p1537
S'Bay Area'
p1538
sS'Total funding'
p1539
S'$7M'
p1540
sS'Stage'
p1541
S'Series B'
p1542
ssg3
(dp1543
sg79
(lp1544
S'B2B'
p1545
aS'E-Commerce'
p1546
assS'xactly'
p1547
(dp1548
g10
(dp1549
S'Acquisitions'
p1550
S'0'
p1551
sS'Growth score'
p1552
S'38'
p1553
sS'Mindshare score'
p1554
S'38'
p1555
sS'Employees'
p1556
g282
sS'Last funding'
p1557
g100
sS'Founded'
p1558
g100
sS'Location'
p1559
g282
sS'Total funding'
p1560
S'Undisclosed'
p1561
sS'Stage'
p1562
S'No Known Funding'
p1563
ssg3
(lp1564
Vinfluitive
p1565
aVsiftery
p1566
aV6sense
p1567
aVadobe-typekit
p1568
aVreachforce
p1569
aVgainsight
p1570
aVnewton
p1571
aVsteelbrick
p1572
aVgoogle-drive
p1573
aVnetwork-solutions-domain-registration
p1574
aVasana
p1575
aVemc-networker
p1576
aVwavefront
p1577
aVmarketo
p1578
aVknowledgetree
p1579
aVworkday
p1580
aVgoogle-fonts
p1581
aVlinode
p1582
aVthe-roi-shop
p1583
aVgeotrust-ssl
p1584
aVwistia
p1585
aVmapr
p1586
aVdocusign
p1587
aVsnapengage
p1588
aVwordpress
p1589
aVsurveymonkey
p1590
aVhootsuite
p1591
aVion-interactive
p1592
aVinfer
p1593
aVdomo
p1594
aVcontentlaunch
p1595
aVbox
p1596
aVgoogle-apps-for-work
p1597
aVnew-relic
p1598
aVbuffer
p1599
aVhello-bar
p1600
aVadobe-flash
p1601
aVadroll
p1602
aVsalesforce-sales-cloud
p1603
aVsnaplogic
p1604
aVon24
p1605
aVsegment
p1606
aVsoapui
p1607
aVtoutapp
p1608
aVjquery
p1609
aVcommercialtribe
p1610
aVslack
p1611
aVnginx
p1612
aVactian-analytics
p1613
aVzoom
p1614
aVgoogle-tag-manager
p1615
aVadaptive-insights
p1616
aVneustar-ultradns
p1617
aVzendesk
p1618
aVgoogle-analytics
p1619
aVzuora
p1620
aVhighcharts
p1621
aVfull-circle-insights
p1622
asg79
(lp1623
S'Human Resources Hr'
p1624
assS'chidoanh'
p1625
(dp1626
g3
(dp1627
ssS'iamnotbasic'
p1628
(dp1629
g10
(dp1630
S'Acquisitions'
p1631
S'0'
p1632
sS'Growth score'
p1633
S'-19'
p1634
sS'Mindshare score'
p1635
S'-19'
p1636
sS'Employees'
p1637
g282
sS'Last funding'
p1638
g100
sS'Founded'
p1639
g100
sS'Location'
p1640
S'Istanbul'
p1641
sS'Total funding'
p1642
S'Undisclosed'
p1643
sS'Stage'
p1644
S'No Known Funding'
p1645
ssg3
(lp1646
Vjquery
p1647
aVgoogle-apps-for-work
p1648
aVtrello
p1649
aVshopify
p1650
aVnginx
p1651
aVgoogle-fonts
p1652
aVsiftery
p1653
aVadroll
p1654
aVperfect-audience
p1655
aVmarin-audience-marketing-suite
p1656
aVmention
p1657
aVolark
p1658
aVsurveymonkey
p1659
aVoptinmonster
p1660
aVgodaddy-dns
p1661
aVgoogle-analytics
p1662
aVdigicert
p1663
aVslack
p1664
asg79
(lp1665
S'B2C'
p1666
aS'E-Commerce'
p1667
aS'Fashion'
p1668
aS'Retail'
p1669
assS'redbearded'
p1670
(dp1671
g3
(dp1672
ssS'boogie'
p1673
(dp1674
g3
(dp1675
ssS'wiziq'
p1676
(dp1677
g10
(dp1678
S'Acquisitions'
p1679
S'0'
p1680
sS'Growth score'
p1681
S'395'
p1682
sS'Mindshare score'
p1683
S'220'
p1684
sS'Employees'
p1685
S'275'
p1686
sS'Last funding'
p1687
S'4 years ago'
p1688
sS'Founded'
p1689
S'2007'
p1690
sS'Location'
p1691
S'Royalston'
p1692
sS'Total funding'
p1693
S'$4M'
p1694
sS'Stage'
p1695
S'Series B'
p1696
ssg3
(lp1697
Vunbounce
p1698
aVfreshdesk
p1699
aVdnn-evoq-engage
p1700
aVmodernizr
p1701
aVmicrosoft-office-365
p1702
aVyahoo-analytics-flurry
p1703
aVfeedbackify
p1704
aVact-on
p1705
aVvisual-website-optimizer
p1706
aVgoogle-fonts
p1707
aVsiftery
p1708
aVgeotrust-ssl
p1709
aVasana
p1710
aVsurveymonkey
p1711
aVgodaddy-domain-registration
p1712
aVcloudflare
p1713
aVbxslider
p1714
aVmoz
p1715
aVgoogle-apps-for-work
p1716
aVbuffer
p1717
aVhello-bar
p1718
aVadroll
p1719
aVnginx
p1720
aVflickr-api
p1721
aVamazon-ses
p1722
aVdropbox
p1723
aVjquery
p1724
aVgoogle-maps
p1725
aVleadlander
p1726
aVgoogle-tag-manager
p1727
aVgoogle-analytics
p1728
aVmarkmonitor-domain-management
p1729
asg79
(lp1730
S'B2B'
p1731
aS'B2C'
p1732
aS'Education'
p1733
aS'Mobile'
p1734
assS'usernl'
p1735
(dp1736
g3
(dp1737
ssS'springrole'
p1738
(dp1739
g10
(dp1740
S'Acquisitions'
p1741
S'0'
p1742
sS'Growth score'
p1743
S'-36'
p1744
sS'Mindshare score'
p1745
S'-21'
p1746
sS'Employees'
p1747
S'16'
p1748
sS'Last funding'
p1749
S'a year ago'
p1750
sS'Founded'
p1751
S'2014'
p1752
sS'Location'
p1753
S'Los Angeles'
p1754
sS'Total funding'
p1755
S'$250K'
p1756
sS'Stage'
p1757
S'Pre-Series A'
p1758
ssg3
(lp1759
Vsailthru
p1760
aVmysql
p1761
aVneo4j
p1762
aValgolia
p1763
aVapache-web-server
p1764
aVamazon-route-53
p1765
aVjava
p1766
aVamazon-sqs
p1767
aVsiftery
p1768
aVerrorception
p1769
aVgodaddy-domain-registration
p1770
aVintuit-quickbooks
p1771
aVoptimizely
p1772
aVgodaddy-ssl
p1773
aVgoogle-apps-for-work
p1774
aVatlassian-jira
p1775
aVlinkedin-recruiter
p1776
aVpython
p1777
aVcrazyegg
p1778
aVadroll
p1779
aVamazon-cloudsearch
p1780
aVtrinet-ambrose
p1781
aVexpensify
p1782
aVapache-http-server
p1783
aVamazon-ses
p1784
aVdropbox
p1785
aVamazon-ec2
p1786
aVtoutapp
p1787
aVjquery
p1788
aVnew-relic
p1789
aVgithub
p1790
aVslack
p1791
aVmailgun
p1792
aVgoogle-maps
p1793
aVbootstrap
p1794
aVgoogle-tag-manager
p1795
aVamazon-simple-workflow-service-swf
p1796
aVamazon-dynamodb
p1797
aVzendesk
p1798
aVgoogle-analytics
p1799
asg79
(lp1800
S'B2B'
p1801
aS'Career / Job Search'
p1802
aS'Human Resources Hr'
p1803
assS'seozeo'
p1804
(dp1805
g10
(dp1806
S'Acquisitions'
p1807
S'0'
p1808
sS'Growth score'
p1809
S'93'
p1810
sS'Mindshare score'
p1811
S'93'
p1812
sS'Employees'
p1813
g282
sS'Last funding'
p1814
g100
sS'Founded'
p1815
S'2010'
p1816
sS'Location'
p1817
S'Ankara'
p1818
sS'Total funding'
p1819
S'Undisclosed'
p1820
sS'Stage'
p1821
S'No Known Funding'
p1822
ssg3
(lp1823
Vsumome
p1824
aVgoogle-drive
p1825
aVtalentlms
p1826
aVmailjet
p1827
aVgoogle-fonts
p1828
aVsiftery
p1829
aVolark
p1830
aVasana
p1831
aVgoogle-domains
p1832
aVcloudflare
p1833
aVgoogle-apps-for-work
p1834
aVbuffer
p1835
aVoptimizely
p1836
aVadobe-flash
p1837
aVadroll
p1838
aVnginx
p1839
aVfirebase
p1840
aVsearchmetrics
p1841
aVsegment
p1842
aVslack
p1843
aVzapier
p1844
aVgoogle-analytics
p1845
asg79
(lp1846
S'Marketing'
p1847
assS'peak-seven'
p1848
(dp1849
g10
(dp1850
S'Acquisitions'
p1851
S'0'
p1852
sS'Growth score'
p1853
S'29'
p1854
sS'Mindshare score'
p1855
S'29'
p1856
sS'Employees'
p1857
g282
sS'Last funding'
p1858
g100
sS'Founded'
p1859
S'1999'
p1860
sS'Location'
p1861
S'Miami'
p1862
sS'Total funding'
p1863
S'Undisclosed'
p1864
sS'Stage'
p1865
S'No Known Funding'
p1866
ssg3
(dp1867
sg79
(lp1868
ssS'hykso'
p1869
(dp1870
g10
(dp1871
S'Acquisitions'
p1872
S'0'
p1873
sS'Growth score'
p1874
S'195'
p1875
sS'Mindshare score'
p1876
S'169'
p1877
sS'Employees'
p1878
S'10 '
p1879
sS'Last funding'
p1880
S'6 months ago'
p1881
sS'Founded'
p1882
S'2013'
p1883
sS'Location'
p1884
S'Quebec'
p1885
sS'Total funding'
p1886
S'$120K'
p1887
sS'Stage'
p1888
S'Pre-Series A'
p1889
ssg3
(lp1890
Vdocusign
p1891
aVsublime-text
p1892
aVsumome
p1893
aVgoogle-drive
p1894
aVgit
p1895
aVevernote
p1896
aVgoogle-fonts
p1897
aVsiftery
p1898
aVinterstate-analytics
p1899
aVolark
p1900
aVasana
p1901
aVwordpress
p1902
aVsurveymonkey
p1903
aVcomodo-ssl
p1904
aVgodaddy-dns
p1905
aVcloudflare
p1906
aVgoogle-apps-for-work
p1907
aVoptimizely
p1908
aVadobe-flash
p1909
aVadroll
p1910
aVmailchimp
p1911
aVnginx
p1912
aVexpensify
p1913
aVslack
p1914
aVhotjar
p1915
aVomnigraffle
p1916
aVgravatar
p1917
aVgoogle-analytics
p1918
asg79
(lp1919
S'B2B'
p1920
aS'B2C'
p1921
aS'Entertainment'
p1922
aS'Fitness and Wellness'
p1923
aS'Hardware'
p1924
aS'Internet of Things'
p1925
aS'Media'
p1926
assS'nectar-desk'
p1927
(dp1928
g3
(dp1929
ssS'le-ide-marketing-digital'
p1930
(dp1931
g3
(dp1932
ssS'clearbit'
p1933
(dp1934
g10
(dp1935
S'Acquisitions'
p1936
S'0'
p1937
sS'Growth score'
p1938
S'605'
p1939
sS'Mindshare score'
p1940
S'581'
p1941
sS'Employees'
p1942
S'11'
p1943
sS'Last funding'
p1944
S'2 years ago'
p1945
sS'Founded'
p1946
S'2014'
p1947
sS'Location'
p1948
S'Bay Area'
p1949
sS'Total funding'
p1950
S'$2M'
p1951
sS'Stage'
p1952
S'Pre-Series A'
p1953
ssg3
(lp1954
Vunbounce
p1955
aVsiftery
p1956
aVtrello
p1957
aVangellist-jobs
p1958
aVsumo-logic
p1959
aVamazon-rds
p1960
aVhelp-scout
p1961
aVsublime-text
p1962
aVchartmogul
p1963
aVoptinmonster
p1964
aVmixpanel
p1965
aVamazon-route-53
p1966
aVpingdom
p1967
aVdnsimple
p1968
aVcloseio
p1969
aVcircleci
p1970
aVamazon-redshift
p1971
aVgoogle-fonts
p1972
aVruby
p1973
aVkissmetrics
p1974
aVadobe-typekit
p1975
aVredis
p1976
aVsinatra
p1977
aVheroku
p1978
aVcomodo-ssl
p1979
aVopentest
p1980
aVamazon-elasticache
p1981
aVsidekiq-pro
p1982
aVrunscope
p1983
aVgoogle-apps-for-work
p1984
aVjoinme
p1985
aVdigitalocean
p1986
aVfastly
p1987
aVrecaptcha
p1988
aVadroll
p1989
aVcodeship
p1990
aVnginx
p1991
aVpersistiq
p1992
aVenom-domain-registration
p1993
aVcoreos
p1994
aVcustomerio
p1995
aVpagerduty
p1996
aVamazon-ec2
p1997
aVsegment
p1998
aVamazon-s3
p1999
aVslack
p2000
aVjquery
p2001
aVnew-relic
p2002
aVperfect-audience
p2003
aVgithub
p2004
aVpostgresql
p2005
aVgoogle-analytics
p2006
aVmailgun
p2007
aVlibrato
p2008
aVsentry
p2009
aVelasticsearch
p2010
aVamazon-dynamodb
p2011
aVdocker
p2012
asg79
(lp2013
S'B2B'
p2014
aS'SaaS'
p2015
aS'Enterprise Software'
p2016
aS'Marketing'
p2017
aS'Software Development'
p2018
assS'automated-pet-care-products'
p2019
(dp2020
g3
(dp2021
ssS'tripping'
p2022
(dp2023
g10
(dp2024
S'Acquisitions'
p2025
S'0'
p2026
sS'Growth score'
p2027
S'268'
p2028
sS'Mindshare score'
p2029
S'172'
p2030
sS'Employees'
p2031
S'50'
p2032
sS'Last funding'
p2033
S'a year ago'
p2034
sS'Founded'
p2035
S'2010'
p2036
sS'Location'
p2037
S'Bay Area'
p2038
sS'Total funding'
p2039
S'$17M'
p2040
sS'Stage'
p2041
S'Series B'
p2042
ssg3
(lp2043
Vtrello
p2044
aVangellist-jobs
p2045
aVsteelhouse
p2046
aVtrustpilot
p2047
aVhelp-scout
p2048
aVchef
p2049
aVdropbox-paper
p2050
aVmysql
p2051
aVzenefits
p2052
aVchartio
p2053
aVdatadog
p2054
aVdisqus
p2055
aVevernote
p2056
aVruby-on-rails
p2057
aVdns-made-easy
p2058
aVsendgrid
p2059
aVsiftery
p2060
aVredis
p2061
aVgoogle-tag-manager
p2062
aVpython
p2063
aVeshares
p2064
aVzend-framework
p2065
aVcriteo
p2066
aVcloudflare
p2067
aVgodaddy-ssl
p2068
aVgoogle-apps-for-work
p2069
aVreactjs
p2070
aVbuffer
p2071
aVoptimizely
p2072
aVjavascript
p2073
aVadroll
p2074
aVgoogle-doubleclick
p2075
aVinvision
p2076
aVthreads
p2077
aVbraintree-payments
p2078
aVdropbox
p2079
aVamazon-ec2
p2080
aVruby
p2081
aVgithub
p2082
aVslack
p2083
aVnginx
p2084
aVgoogle-maps
p2085
aVbootstrap
p2086
aVzoom
p2087
aVrabbitmq
p2088
aVwaffleio
p2089
aVtealium
p2090
aVelasticsearch
p2091
aVenom-domain-registration
p2092
aVgoogle-analytics
p2093
asg79
(lp2094
S'B2C'
p2095
aS'Marketplace'
p2096
aS'E-Commerce'
p2097
aS'Hospitality'
p2098
aS'Real Estate'
p2099
aS'Travel'
p2100
assS'mohiomap'
p2101
(dp2102
g3
(dp2103
ssS'sellsy'
p2104
(dp2105
g10
(dp2106
S'Acquisitions'
p2107
S'0'
p2108
sS'Growth score'
p2109
S'344'
p2110
sS'Mindshare score'
p2111
S'308'
p2112
sS'Employees'
p2113
S'31'
p2114
sS'Last funding'
p2115
S'3 years ago'
p2116
sS'Founded'
p2117
S'2009'
p2118
sS'Location'
p2119
S'La Rochelle'
p2120
sS'Total funding'
p2121
S'Undisclosed'
p2122
sS'Stage'
p2123
S'Series A'
p2124
ssg3
(lp2125
Vsiftery
p2126
aValgolia-docsearch
p2127
aVnodejs
p2128
aVcitrix-gotowebinar
p2129
aVbackbonejs
p2130
aVgoogle-drive
p2131
aValgolia
p2132
aVphp
p2133
aVapache-cordova
p2134
aVgearman
p2135
aVsendgrid
p2136
aVliveplan
p2137
aVgandinet-domain-registration
p2138
aVsociallymap
p2139
aVoptimonk
p2140
aVgoogle-apps-for-work
p2141
aVpaypal
p2142
aVjoinme
p2143
aVadobe-flash
p2144
aVadroll
p2145
aVmention
p2146
aVgandinet-hosting
p2147
aVdropbox
p2148
aVmariadb
p2149
aVsegment
p2150
aVnew-relic
p2151
aVslack
p2152
aVgusto
p2153
aVgoogle-analytics
p2154
aVstripe
p2155
asg79
(lp2156
S'B2B'
p2157
aS'SaaS'
p2158
aS'Enterprise Software'
p2159
assS'teamgantt'
p2160
(dp2161
g10
(dp2162
S'Acquisitions'
p2163
S'0'
p2164
sS'Growth score'
p2165
S'224'
p2166
sS'Mindshare score'
p2167
S'224'
p2168
sS'Employees'
p2169
g282
sS'Last funding'
p2170
g100
sS'Founded'
p2171
S'2009'
p2172
sS'Location'
p2173
S'Baltimore'
p2174
sS'Total funding'
p2175
S'Undisclosed'
p2176
sS'Stage'
p2177
S'No Known Funding'
p2178
ssg3
(lp2179
Vrackspace-hosting
p2180
aVbraintree-payments
p2181
aVangellist-jobs
p2182
aVadobe-typekit
p2183
aVwistia
p2184
aVgrasshopper
p2185
aVhelp-scout
p2186
aVsumome
p2187
aVtypepad
p2188
aVwebengage
p2189
aVapache-web-server
p2190
aVevernote
p2191
aVsharethis
p2192
aVsendgrid
p2193
aVsiftery
p2194
aVgeotrust-ssl
p2195
aVwordpress
p2196
aVsatismeter
p2197
aVmoz
p2198
aVgoogle-apps-for-work
p2199
aVbuffer
p2200
aVintercom
p2201
aVrecaptcha
p2202
aVadroll
p2203
aVcustomerio
p2204
aVdropbox
p2205
aVsegment
p2206
aVappnexus
p2207
aVjquery
p2208
aVnew-relic
p2209
aVoptimizely
p2210
aVslack
p2211
aVzapier
p2212
aVhotjar
p2213
aVgoogle-tag-manager
p2214
aVamplitude
p2215
aVzendesk
p2216
aVgoogle-analytics
p2217
aVkissmetrics
p2218
asg79
(lp2219
S'B2B'
p2220
aS'Human Resources Hr'
p2221
assS'providertrust'
p2222
(dp2223
g10
(dp2224
S'Acquisitions'
p2225
S'0'
p2226
sS'Growth score'
p2227
S'82'
p2228
sS'Mindshare score'
p2229
S'62'
p2230
sS'Employees'
p2231
S'30'
p2232
sS'Last funding'
p2233
S'4 years ago'
p2234
sS'Founded'
p2235
S'2010'
p2236
sS'Location'
p2237
S'Nashville'
p2238
sS'Total funding'
p2239
S'$2M'
p2240
sS'Stage'
p2241
S'Series B'
p2242
ssg3
(lp2243
Vleadin
p2244
aVadobe-typekit
p2245
aVhubspot-crm
p2246
aVamazon-route-53
p2247
aVapache-web-server
p2248
aVgoogle-fonts
p2249
aVsiftery
p2250
aVgeotrust-ssl
p2251
aVhubspot-marketing-platform
p2252
aVsurveymonkey
p2253
aVmoz
p2254
aVgoogle-apps-for-work
p2255
aVadroll
p2256
aVheap
p2257
aVamazon-ses
p2258
aVdropbox
p2259
aVamazon-ec2
p2260
aVjquery
p2261
aVslack
p2262
aVifttt
p2263
aVzapier
p2264
aVzencoder
p2265
aVgoogle-analytics
p2266
asg79
(lp2267
S'B2B'
p2268
aS'Healthcare'
p2269
assS'airbrake'
p2270
(dp2271
g3
(dp2272
ssS'wandera'
p2273
(dp2274
g10
(dp2275
S'Acquisitions'
p2276
S'0'
p2277
sS'Growth score'
p2278
S'305'
p2279
sS'Mindshare score'
p2280
S'161'
p2281
sS'Employees'
p2282
S'95'
p2283
sS'Last funding'
p2284
S'2 years ago'
p2285
sS'Founded'
p2286
S'2012'
p2287
sS'Location'
p2288
S'Bay Area'
p2289
sS'Total funding'
p2290
S'$22M'
p2291
sS'Stage'
p2292
S'Series B'
p2293
ssg3
(lp2294
Vadobe-typekit
p2295
aVamazon-route-53
p2296
aVmarketo
p2297
aVmandrill
p2298
aVgoogle-fonts
p2299
aVsiftery
p2300
aVgeotrust-ssl
p2301
aVwordpress
p2302
aVgodaddy-domain-registration
p2303
aVgoogle-apps-for-work
p2304
aVthelions
p2305
aVadroll
p2306
aVmailchimp
p2307
aVsalesforce-sales-cloud
p2308
aVnginx
p2309
aVapache-tomcat
p2310
aVruby
p2311
aVnew-relic
p2312
aVfinancialforce-financial-management
p2313
aVpostgresql
p2314
aVgoogle-maps
p2315
aVexpensify
p2316
aVzendesk
p2317
aVzopim
p2318
aVgoogle-analytics
p2319
asg79
(lp2320
S'B2B'
p2321
aS'Enterprise Software'
p2322
aS'Finance'
p2323
aS'Mobile'
p2324
aS'Security'
p2325
assS'matchnode'
p2326
(dp2327
g10
(dp2328
S'Acquisitions'
p2329
S'0'
p2330
sS'Growth score'
p2331
S'44'
p2332
sS'Mindshare score'
p2333
S'44'
p2334
sS'Employees'
p2335
S'5'
p2336
sS'Last funding'
p2337
g100
sS'Founded'
p2338
S'2012'
p2339
sS'Location'
p2340
S'Chicago'
p2341
sS'Total funding'
p2342
S'Undisclosed'
p2343
sS'Stage'
p2344
S'No Known Funding'
p2345
ssg3
(lp2346
Vunbounce
p2347
aVsiftery
p2348
aVmixpanel
p2349
aVgoogle-apps-for-work
p2350
aVfacebook-ads
p2351
aVjoinme
p2352
aVzenefits
p2353
aVmandrill
p2354
aVazalead
p2355
aVgoogle-tag-manager
p2356
aVbluehost
p2357
aVasana
p2358
aVhubspot-marketing-platform
p2359
aVzoho-crm
p2360
aVcomodo-ssl
p2361
aVintercom
p2362
aVwordpress
p2363
aVmoz
p2364
aVgoogle-adwords
p2365
aVtableau-software
p2366
aVbuffer
p2367
aVadroll
p2368
aVoptimizely
p2369
aVmapbox
p2370
aVzoho-invoice
p2371
aVmailchimp
p2372
aVnginx
p2373
aVstripe
p2374
aVdropbox
p2375
aVconstant-contact
p2376
aVslack
p2377
aVhittail
p2378
aVtrello
p2379
aVgetresponse
p2380
aVintuit-quickbooks
p2381
aVgoogle-analytics
p2382
asg79
(lp2383
S'B2B'
p2384
aS'Advertising'
p2385
aS'Marketing'
p2386
assS'payscape-advisors'
p2387
(dp2388
g10
(dp2389
S'Acquisitions'
p2390
S'0'
p2391
sS'Growth score'
p2392
S'10'
p2393
sS'Mindshare score'
p2394
S'10'
p2395
sS'Employees'
p2396
g282
sS'Last funding'
p2397
g100
sS'Founded'
p2398
g100
sS'Location'
p2399
g282
sS'Total funding'
p2400
S'Undisclosed'
p2401
sS'Stage'
p2402
S'No Known Funding'
p2403
ssg3
(dp2404
sg79
(lp2405
S'Finance'
p2406
assS'bonfire-1'
p2407
(dp2408
g10
(dp2409
S'Acquisitions'
p2410
S'0'
p2411
sS'Growth score'
p2412
S'14'
p2413
sS'Mindshare score'
p2414
S'11'
p2415
sS'Employees'
p2416
S'21'
p2417
sS'Last funding'
p2418
S'4 years ago'
p2419
sS'Founded'
p2420
S'2012'
p2421
sS'Location'
p2422
S'Los Angeles'
p2423
sS'Total funding'
p2424
S'$500K'
p2425
sS'Stage'
p2426
S'Series A'
p2427
ssg3
(lp2428
Vsquarespace
p2429
aVtrello
p2430
aVleadin
p2431
aVadobe-typekit
p2432
aVadobe-marketing-cloud
p2433
aVmicrosoft-office-365
p2434
aVdigicert
p2435
aVsiftery
p2436
aVzoho-crm
p2437
aVgodaddy-dns
p2438
aVgoogle-apps-for-work
p2439
aVjoinme
p2440
aVoptimizely
p2441
aVpaypal
p2442
aVadroll
p2443
aVexpensify
p2444
aVmicrosoft-outlook
p2445
aVdropbox
p2446
aVamazon-ec2
p2447
aVsegment
p2448
aVgithub
p2449
aVslack
p2450
aVzapier
p2451
aVzoom
p2452
aVgoogle-tag-manager
p2453
aVintuit-quickbooks
p2454
aVgoogle-analytics
p2455
asg79
(lp2456
S'B2B'
p2457
aS'Advertising'
p2458
assS'planet-ride'
p2459
(dp2460
g10
(dp2461
S'Acquisitions'
p2462
S'0'
p2463
sS'Growth score'
p2464
S'185'
p2465
sS'Mindshare score'
p2466
S'185'
p2467
sS'Employees'
p2468
S'14'
p2469
sS'Last funding'
p2470
g100
sS'Founded'
p2471
S'2014'
p2472
sS'Location'
p2473
S'Paris'
p2474
sS'Total funding'
p2475
S'Undisclosed'
p2476
sS'Stage'
p2477
S'No Known Funding'
p2478
ssg3
(lp2479
Vbootstrap
p2480
aVmixpanel
p2481
aVsugarcrm
p2482
aVsublime-text
p2483
aVsumome
p2484
aVmysql
p2485
aVtrello
p2486
aVpingdom
p2487
aVgit
p2488
aVamazon-cloudfront
p2489
aVmandrill
p2490
aVsiftery
p2491
aVheroku
p2492
aVolark
p2493
aVwordpress
p2494
aVwunderlist
p2495
aVgoogle-apps-for-work
p2496
aVatlassian-jira
p2497
aVbuffer
p2498
aVoptimizely
p2499
aVadroll
p2500
aVmailchimp
p2501
aVnginx
p2502
aVsegment
p2503
aVjquery
p2504
aVnew-relic
p2505
aVslack
p2506
aVmailgun
p2507
aVzapier
p2508
aVatlassian-bitbucket
p2509
aVgoogle-tag-manager
p2510
aValphassl
p2511
aVphoenix-frameworks
p2512
aVgoogle-analytics
p2513
aVbrowserstack
p2514
asg79
(lp2515
S'B2C'
p2516
aS'Automotive'
p2517
aS'Travel'
p2518
assS'graphium-health'
p2519
(dp2520
g10
(dp2521
S'Acquisitions'
p2522
S'0'
p2523
sS'Growth score'
p2524
S'39'
p2525
sS'Mindshare score'
p2526
S'39'
p2527
sS'Employees'
p2528
S'6'
p2529
sS'Last funding'
p2530
g100
sS'Founded'
p2531
S'2012'
p2532
sS'Location'
p2533
S'Dallas'
p2534
sS'Total funding'
p2535
S'Undisclosed'
p2536
sS'Stage'
p2537
S'No Known Funding'
p2538
ssg3
(dp2539
sg79
(lp2540
S'B2B'
p2541
aS'Enterprise Software'
p2542
aS'Health It'
p2543
aS'Healthcare'
p2544
assS'sendbloom'
p2545
(dp2546
g10
(dp2547
S'Acquisitions'
p2548
S'0'
p2549
sS'Growth score'
p2550
S'270'
p2551
sS'Mindshare score'
p2552
S'255'
p2553
sS'Employees'
p2554
S'12'
p2555
sS'Last funding'
p2556
g100
sS'Founded'
p2557
S'2013'
p2558
sS'Location'
p2559
S'Bay Area'
p2560
sS'Total funding'
p2561
S'Undisclosed'
p2562
sS'Stage'
p2563
S'Pre-Series A'
p2564
ssg3
(lp2565
Vfreshbooks
p2566
aVsquarespace
p2567
aVtrello
p2568
aVheap
p2569
aVangellist-jobs
p2570
aVadobe-typekit
p2571
aVdocusign
p2572
aVhellosign
p2573
aVunderdogio
p2574
aVhelp-scout
p2575
aVchartmogul
p2576
aVdropbox
p2577
aVzenefits
p2578
aVkickbox
p2579
aVpivotal-tracker
p2580
aVhosted-graphite
p2581
aVgoogle-fonts
p2582
aVsendgrid
p2583
aVsiftery
p2584
aVcomodo-ssl
p2585
aVtoofr
p2586
aVgoogle-apps-for-work
p2587
aVjoinme
p2588
aVthelions
p2589
aVintercom
p2590
aVadroll
p2591
aVmailchimp
p2592
aVsalesforce-sales-cloud
p2593
aVnginx
p2594
aVgithub
p2595
aVstripe
p2596
aVtwilio
p2597
aVpagerduty
p2598
aVamazon-ec2
p2599
aVsegment
p2600
aVjquery
p2601
aVclearbit
p2602
aVemail-hunter
p2603
aVsendwithus
p2604
aVslack
p2605
aVnamecheap-web-hosting
p2606
aVgoogle-maps
p2607
aVgusto
p2608
aVhired
p2609
aVintuit-quickbooks
p2610
aVgoogle-analytics
p2611
aVcredpr
p2612
aVopbeat
p2613
asg79
(lp2614
S'B2B'
p2615
aS'Email'
p2616
aS'Marketing'
p2617
assS'superpedestrian'
p2618
(dp2619
g10
(dp2620
S'Acquisitions'
p2621
S'0'
p2622
sS'Growth score'
p2623
S'242'
p2624
sS'Mindshare score'
p2625
S'187'
p2626
sS'Employees'
p2627
S'40'
p2628
sS'Last funding'
p2629
S'2 years ago'
p2630
sS'Founded'
p2631
S'2012'
p2632
sS'Location'
p2633
S'Boston'
p2634
sS'Total funding'
p2635
S'$6M'
p2636
sS'Stage'
p2637
S'Series B'
p2638
ssg3
(lp2639
Vtrinet-expensecloud
p2640
aVangellist-jobs
p2641
aVdocusign
p2642
aVtypeform
p2643
aVtrinet-cloud
p2644
aVskype
p2645
aVamazon-route-53
p2646
aVfilestack
p2647
aVquantcast-measure
p2648
aVjava
p2649
aVmandrill
p2650
aVgoogle-fonts
p2651
aVsendgrid
p2652
aVsiftery
p2653
aVredis
p2654
aVeshares
p2655
aVgoogle-hangouts
p2656
aVheroku
p2657
aVgodaddy-domain-registration
p2658
aVmapbox
p2659
aVprismic
p2660
aVmoz
p2661
aVgoogle-apps-for-work
p2662
aVatlassian-jira
p2663
aVlinkedin-recruiter
p2664
aVmoody-famiglietti-andronico
p2665
aVmongodb
p2666
aVoptimizely
p2667
aVjazz
p2668
aVadroll
p2669
aVmailchimp
p2670
aVsalesforce-sales-cloud
p2671
aVinvision
p2672
aVpaperless-post
p2673
aVstripe
p2674
aVeventbrite
p2675
aVavalara
p2676
aVc-1001
p2677
aVamazon-ec2
p2678
aVnew-relic
p2679
aVc
p2680
aVgithub
p2681
aVgtc-law-group
p2682
aVslack
p2683
aVgoodwin-procter
p2684
aVcompose-hosted-mongodb
p2685
aVgoogle-drive
p2686
aVlocalytics
p2687
aVintuit-quickbooks
p2688
aVzendesk
p2689
aVgoogle-analytics
p2690
aVsalesforce-service-cloud
p2691
asg79
(lp2692
S'B2C'
p2693
aS'Automotive'
p2694
aS'Enterprise Software'
p2695
aS'Hardware'
p2696
aS'Internet of Things'
p2697
aS'Transportation'
p2698
assS'feeln-1'
p2699
(dp2700
g10
(dp2701
S'Acquisitions'
p2702
S'0'
p2703
sS'Growth score'
p2704
S'296'
p2705
sS'Mindshare score'
p2706
S'296'
p2707
sS'Employees'
p2708
g282
sS'Last funding'
p2709
g100
sS'Founded'
p2710
S'2007'
p2711
sS'Location'
p2712
S'Los Angeles'
p2713
sS'Total funding'
p2714
S'Undisclosed'
p2715
sS'Stage'
p2716
S'No Known Funding'
p2717
ssg3
(lp2718
Vadobe-marketing-cloud
p2719
aVboomerang-for-gmail
p2720
aVnetsuite-crm
p2721
aVlinkedin-recruiter
p2722
aVpiwik
p2723
aVamazon-route-53
p2724
aVzenefits
p2725
aVquantcast-measure
p2726
aVevernote
p2727
aVgoogle-fonts
p2728
aVsendgrid
p2729
aVsiftery
p2730
aVwordpress
p2731
aVtaboola
p2732
aVcriteo
p2733
aVve-platfrom
p2734
aVgoogle-apps-for-work
p2735
aVnetsuite-erp
p2736
aVbrowser-update
p2737
aVoptimizely
p2738
aVadroll
p2739
aVjoinme
p2740
aVthawte-ssl
p2741
aVdropbox
p2742
aVamazon-ec2
p2743
aVgithub
p2744
aVtableau-software
p2745
aVbootstrap
p2746
aVooyala
p2747
aVgoogle-tag-manager
p2748
aVgravatar
p2749
aVgoogle-analytics
p2750
asg79
(lp2751
S'E-Commerce'
p2752
aS'Entertainment'
p2753
assS'15five'
p2754
(dp2755
g10
(dp2756
S'Acquisitions'
p2757
S'0'
p2758
sS'Growth score'
p2759
S'255'
p2760
sS'Mindshare score'
p2761
S'251'
p2762
sS'Employees'
p2763
S'17'
p2764
sS'Last funding'
p2765
S'2 years ago'
p2766
sS'Founded'
p2767
S'2011'
p2768
sS'Location'
p2769
S'Bay Area'
p2770
sS'Total funding'
p2771
S'$3M'
p2772
sS'Stage'
p2773
S'Pre-Series A'
p2774
ssg3
(lp2775
Vmixpanel
p2776
aVcustomerio
p2777
aVangellist-jobs
p2778
aVboomerang-for-gmail
p2779
aVgoogle-drive
p2780
aVamazon-route-53
p2781
aVamazon-ec2
p2782
aVamazon-cloudfront
p2783
aVeshares
p2784
aVhubspot-marketing-platform
p2785
aVokta
p2786
aVgrowsumo
p2787
aVoptimizely
p2788
aVadobe-flash
p2789
aVadroll
p2790
aVsalesforce-sales-cloud
p2791
aVmention
p2792
aVclerky
p2793
aVdisqus
p2794
aVnew-relic
p2795
aVpreact
p2796
aVzapier
p2797
aVzoom
p2798
aVrecurly
p2799
aVgoogle-tag-manager
p2800
aVinternetbs-domain-registration
p2801
aVgoogle-analytics
p2802
aVunbounce
p2803
aVsumome
p2804
aVmaxcdn
p2805
aVzenefits
p2806
aVmandrill
p2807
aVsegment
p2808
aVgoogle-hangouts
p2809
aVgoogle-apps-for-work
p2810
aVsalesforceiq-crm
p2811
aVhello-bar
p2812
aVcrazyegg
p2813
aVinvision
p2814
aVfocuster
p2815
aVwageworks
p2816
aVgoogle-maps
p2817
aVintuit-quickbooks
p2818
aVdocusign
p2819
aVwistia
p2820
aVcudasign
p2821
aVquantcast-measure
p2822
aVevernote
p2823
aVgleam
p2824
aVsiftery
p2825
aVolark
p2826
aVwordpress
p2827
aVtoggl
p2828
aVfullstory
p2829
aVlinkedin-recruiter
p2830
aVpositionly
p2831
aVbraintree-payments
p2832
aVjquery
p2833
aVslack
p2834
aVinfluitive
p2835
aVtrello
p2836
aVyesware
p2837
aVadobe-typekit
p2838
aVfullcontact
p2839
aVhelp-scout
p2840
aVchartmogul
p2841
aVtypepad
p2842
aVslideshare
p2843
aVevergage
p2844
aVpipedrive
p2845
aVgoogle-fonts
p2846
aVsendgrid
p2847
aVsurveymonkey
p2848
aVcomodo-ssl
p2849
aVintercom
p2850
aVthelions
p2851
aVbuffer
p2852
aVinspectlet
p2853
aVaddthis
p2854
aVmailchimp
p2855
aVexpensify
p2856
aVdropbox
p2857
aVimprovely
p2858
aVgithub
p2859
aVnginx
p2860
aVbootstrap
p2861
asg79
(lp2862
S'B2B'
p2863
aS'Career / Job Search'
p2864
aS'Enterprise Software'
p2865
aS'Human Resources'
p2866
aS'Human Resources Hr'
p2867
assS'truefire'
p2868
(dp2869
g10
(dp2870
S'Acquisitions'
p2871
S'0'
p2872
sS'Growth score'
p2873
S'65'
p2874
sS'Mindshare score'
p2875
S'65'
p2876
sS'Employees'
p2877
S'24'
p2878
sS'Last funding'
p2879
g100
sS'Founded'
p2880
S'1991'
p2881
sS'Location'
p2882
S'Saint Petersburg'
p2883
sS'Total funding'
p2884
S'Undisclosed'
p2885
sS'Stage'
p2886
S'No Known Funding'
p2887
ssg3
(lp2888
Vroost
p2889
aVsumome
p2890
aVgoogle-drive
p2891
aVparse-analytics
p2892
aVtypepad
p2893
aVapache-web-server
p2894
aVgoogle-fonts
p2895
aVsiftery
p2896
aVwufoo
p2897
aVasana
p2898
aVwordpress
p2899
aVsurveymonkey
p2900
aVhello-bar
p2901
aVmoz
p2902
aVdoorbell
p2903
aVbuffer
p2904
aVintercom
p2905
aVoptimizely
p2906
aVadobe-flash
p2907
aVadroll
p2908
aVvbulletin
p2909
aVstarfield-ssl
p2910
aVdropbox
p2911
aVnew-relic
p2912
aVifttt
p2913
aVzapier
p2914
aVbootstrap
p2915
aVzendesk
p2916
aVzopim
p2917
aVgoogle-analytics
p2918
asg79
(lp2919
S'B2C'
p2920
aS'E-Commerce'
p2921
aS'Education'
p2922
aS'Mobile'
p2923
aS'Music'
p2924
assS'taskfeed'
p2925
(dp2926
g3
(dp2927
ssS'uxcam'
p2928
(dp2929
g10
(dp2930
S'Acquisitions'
p2931
S'0'
p2932
sS'Growth score'
p2933
S'195'
p2934
sS'Mindshare score'
p2935
S'187'
p2936
sS'Employees'
p2937
S'9'
p2938
sS'Last funding'
p2939
S'2 years ago'
p2940
sS'Founded'
p2941
S'2013'
p2942
sS'Location'
p2943
S'London'
p2944
sS'Total funding'
p2945
S'$125K'
p2946
sS'Stage'
p2947
S'Pre-Series A'
p2948
ssg3
(lp2949
Vgoogle-apps-for-work
p2950
aVsiftery
p2951
aVuservoice
p2952
aVgoogle-analytics
p2953
aVmailgun
p2954
aVgoogle-fonts
p2955
aVintercom
p2956
aVoptimizely
p2957
aVbootstrap
p2958
aVadroll
p2959
aVrawgit
p2960
aVsumome
p2961
aVhubspot-marketing-platform
p2962
aVheap
p2963
aVwordpress
p2964
aVamazon-route-53
p2965
aVsegment
p2966
aVamazon-s3
p2967
aVmixpanel
p2968
aVslack
p2969
asg79
(lp2970
S'B2B'
p2971
aS'Analytics'
p2972
aS'Enterprise Software'
p2973
aS'Mobile'
p2974
aS'Software Development'
p2975
assS'clicktime'
p2976
(dp2977
g10
(dp2978
S'Acquisitions'
p2979
S'0'
p2980
sS'Growth score'
p2981
S'232'
p2982
sS'Mindshare score'
p2983
S'232'
p2984
sS'Employees'
p2985
S'30'
p2986
sS'Last funding'
p2987
g100
sS'Founded'
p2988
S'1997'
p2989
sS'Location'
p2990
S'Bay Area'
p2991
sS'Total funding'
p2992
S'Undisclosed'
p2993
sS'Stage'
p2994
S'No Known Funding'
p2995
ssg3
(lp2996
Vsquare
p2997
aVtrello
p2998
aVyesware
p2999
aVangellist-jobs
p3000
aVmadcap-flare
p3001
aVchef
p3002
aVangularjs
p3003
aVpingdom
p3004
aVsalesforce-marketing-cloud
p3005
aVchatlio
p3006
aVgit
p3007
aVmandrill
p3008
aVphonegap
p3009
aVdns-made-easy
p3010
aVsiftery
p3011
aVredis
p3012
aVwordpress
p3013
aVjenkins
p3014
aVsalesforce-pardot
p3015
aVgoogle-apps-for-work
p3016
aVjoinme
p3017
aVjavascript
p3018
aVadroll
p3019
aVsalesforce-sales-cloud
p3020
aVapache-cordova
p3021
aVgoogle-analytics
p3022
aVsumome
p3023
aVslack
p3024
aVbootstrap
p3025
aVgoogle-fonts
p3026
aVzendesk
p3027
aVdocker
p3028
aVrawgit
p3029
asg79
(lp3030
S'B2B'
p3031
aS'Consulting'
p3032
aS'SaaS'
p3033
aS'Enterprise Software'
p3034
assS'fitsme'
p3035
(dp3036
g3
(dp3037
ssS'plivo'
p3038
(dp3039
g10
(dp3040
S'Acquisitions'
p3041
S'0'
p3042
sS'Growth score'
p3043
S'269'
p3044
sS'Mindshare score'
p3045
S'214'
p3046
sS'Employees'
p3047
S'63'
p3048
sS'Last funding'
p3049
S'4 years ago'
p3050
sS'Founded'
p3051
S'2011'
p3052
sS'Location'
p3053
S'Bay Area'
p3054
sS'Total funding'
p3055
S'$2M'
p3056
sS'Stage'
p3057
S'Pre-Series A'
p3058
ssg3
(lp3059
Vonelogin
p3060
aVtrello
p3061
aVanyperk
p3062
aVfreshdesk
p3063
aVadobe-typekit
p3064
aVmodernizr
p3065
aVjoinme
p3066
aVsimplyhired
p3067
aVlinkedin-recruiter
p3068
aVamazon-route-53
p3069
aVzenefits
p3070
aVrecruiterbox
p3071
aVmarketo
p3072
aVangellist-jobs
p3073
aVkissmetrics
p3074
aVsiftery
p3075
aVheroku
p3076
aVsurveymonkey
p3077
aVhootsuite
p3078
aVmoz
p3079
aVgoogle-apps-for-work
p3080
aVatlassian-jira
p3081
aVsalesforceiq-crm
p3082
aVthelions
p3083
aVbuffer
p3084
aVnetwork-solutions-domain-registration
p3085
aVoptimizely
p3086
aVadobe-esign-services-formerly-echosign
p3087
aVadroll
p3088
aVsalesforce-sales-cloud
p3089
aVhired
p3090
aVstripe
p3091
aVcustomerio
p3092
aVdropbox
p3093
aV99tests
p3094
aVdisqus
p3095
aVsegment
p3096
aVgoogle-analytics
p3097
aVswiftype
p3098
aVjquery
p3099
aVperfect-audience
p3100
aVgithub
p3101
aVslack
p3102
aVmailgun
p3103
aVzapier
p3104
aVbootstrap
p3105
aVzoom
p3106
aVgoogle-tag-manager
p3107
aVintuit-quickbooks
p3108
aVzendesk
p3109
aVamazon-s3
p3110
asg79
(lp3111
S'B2B'
p3112
aS'Cloud Computing'
p3113
aS'Software Development'
p3114
aS'Telecommunications'
p3115
assS'accel-partners'
p3116
(dp3117
g3
(dp3118
ssS'inventables'
p3119
(dp3120
g10
(dp3121
S'Acquisitions'
p3122
S'0'
p3123
sS'Growth score'
p3124
S'429'
p3125
sS'Mindshare score'
p3126
S'389'
p3127
sS'Employees'
p3128
S'29'
p3129
sS'Last funding'
p3130
S'a year ago'
p3131
sS'Founded'
p3132
S'2002'
p3133
sS'Location'
p3134
S'Chicago'
p3135
sS'Total funding'
p3136
S'$10M'
p3137
sS'Stage'
p3138
S'Series B'
p3139
ssg3
(lp3140
Vpassenger
p3141
aVmixpanel
p3142
aVangellist-jobs
p3143
aVblogger
p3144
aVmodernizr
p3145
aVgoogle-drive
p3146
aVgreenhouse
p3147
aVapache-web-server
p3148
aVamazon-cloudfront
p3149
aVruby-on-rails
p3150
aVgoogle-fonts
p3151
aVsegment
p3152
aVsendgrid
p3153
aVsiftery
p3154
aVjoker-domain-registration
p3155
aVwordpress
p3156
aVgoogle-apps-for-work
p3157
aVsimplyhired
p3158
aVlinkedin-recruiter
p3159
aVintercom
p3160
aVoptimizely
p3161
aVadroll
p3162
aVphusion-passenger
p3163
aVbraintree-payments
p3164
aVparklet
p3165
aVruby
p3166
aVnew-relic
p3167
aVapache-http-server
p3168
aVslack
p3169
aVmailgun
p3170
aVhotjar
p3171
aVbootstrap
p3172
aVglassdoor-jobs
p3173
aVintuit-quickbooks
p3174
aVgoogle-analytics
p3175
aVsalesforce-deskcom
p3176
asg79
(lp3177
S'B2B'
p3178
aS'B2C'
p3179
aS'Marketplace'
p3180
aS'E-Commerce'
p3181
aS'Hardware'
p3182
assS'moosend'
p3183
(dp3184
g10
(dp3185
S'Acquisitions'
p3186
S'0'
p3187
sS'Growth score'
p3188
S'296'
p3189
sS'Mindshare score'
p3190
S'296'
p3191
sS'Employees'
p3192
S'16'
p3193
sS'Last funding'
p3194
g100
sS'Founded'
p3195
S'2011'
p3196
sS'Location'
p3197
S'Engomi'
p3198
sS'Total funding'
p3199
S'Undisclosed'
p3200
sS'Stage'
p3201
S'No Known Funding'
p3202
ssg3
(lp3203
Vunbounce
p3204
aVsiftery
p3205
aVmixpanel
p3206
aVnodejs
p3207
aVmixmax
p3208
aVgoogle-drive
p3209
aVmoz
p3210
aVtrello
p3211
aVamazon-route-53
p3212
aVsalesforce-marketing-cloud
p3213
aVpivotal-tracker
p3214
aVdisqus
p3215
aVevernote
p3216
aVgoogle-fonts
p3217
aVcreately
p3218
aVmicrosoft-iis
p3219
aVsunrise-calendar
p3220
aVgeotrust-ssl
p3221
aVcheddargetter
p3222
aVwordpress
p3223
aVhootsuite
p3224
aVwebex-from-cisco
p3225
aVoptimonk
p3226
aVgoogle-apps-for-work
p3227
aVintercom
p3228
aVjavascript
p3229
aVadroll
p3230
aVsalesforce-sales-cloud
p3231
aVinvision
p3232
aVdropbox
p3233
aVamazon-ec2
p3234
aVsegment
p3235
aVnew-relic
p3236
aVperfect-audience
p3237
aVslack
p3238
aVzapier
p3239
aVbootstrap
p3240
aVbuiltwith
p3241
aVgravatar
p3242
aVzendesk
p3243
aVgoogle-analytics
p3244
aVlastpass
p3245
aVrawgit
p3246
asg79
(lp3247
S'B2B'
p3248
aS'Email'
p3249
aS'Marketing'
p3250
assS'jixee'
p3251
(dp3252
g3
(dp3253
ssS'30acres'
p3254
(dp3255
g3
(dp3256
ssS'dribble'
p3257
(dp3258
g10
(dp3259
S'Acquisitions'
p3260
S'0'
p3261
sS'Growth score'
p3262
S'3'
p3263
sS'Mindshare score'
p3264
S'3'
p3265
sS'Employees'
p3266
g282
sS'Last funding'
p3267
g100
sS'Founded'
p3268
g100
sS'Location'
p3269
g282
sS'Total funding'
p3270
S'Undisclosed'
p3271
sS'Stage'
p3272
S'No Known Funding'
p3273
ssg3
(lp3274
Vgosquared
p3275
aVsketch
p3276
aVsift-science
p3277
aVtrello
p3278
aVtwilio
p3279
aVbranch-metrics
p3280
aVbeamery
p3281
aVsimilarweb
p3282
aVusertesting
p3283
aVfacebook-ads
p3284
aVobjective-c
p3285
aVxero
p3286
aVreceipt-bank
p3287
aVdribbble-jobs
p3288
aVskype
p3289
aVamazon-route-53
p3290
aVcharliehr
p3291
aVcowboy-web-server
p3292
aVinstagress
p3293
aVtestflight
p3294
aVfabric
p3295
aVliftoff
p3296
aVsendgrid
p3297
aVsiftery
p3298
aVeshares
p3299
aVinstabug
p3300
aVzeplin
p3301
aVtweetdeck
p3302
aVtruebill
p3303
aVpaysafe
p3304
aVgeckoboard
p3305
aVgoogle-apps-for-work
p3306
aVpaypal
p3307
aVapp-annie
p3308
aVmongolab
p3309
aVevernote
p3310
aVbuffer
p3311
aVbitly
p3312
aVangellist-jobs
p3313
aVboombox
p3314
aVadroll
p3315
aVmailchimp
p3316
aVmention
p3317
aVhired
p3318
aVcustomerio
p3319
aVpixate
p3320
aVfront
p3321
aVgoogle-domains
p3322
aVdribbble
p3323
aVamazon-ec2
p3324
aVsegment
p3325
aVspendesk
p3326
aVgithub
p3327
aVslack
p3328
aVifttt
p3329
aVappsflyer
p3330
aVzapier
p3331
aVonfido
p3332
aVbootstrap
p3333
aVsmooch
p3334
aVlaunchkit
p3335
aV1password
p3336
aVadobe-photoshop
p3337
aVamplitude
p3338
aVgoogle-analytics
p3339
aVnexmo
p3340
aVadcolony
p3341
aVinvision
p3342
asg79
(lp3343
S'Healthcare'
p3344
aS'Pharmaceuticals'
p3345
aS'Real Estate'
p3346
assS'salesforce'
p3347
(dp3348
g10
(dp3349
S'Acquisitions'
p3350
S'41'
p3351
sS'Growth score'
p3352
S'15,486'
p3353
sS'Mindshare score'
p3354
S'486'
p3355
sS'Employees'
p3356
S'21,317'
p3357
sS'Last funding'
p3358
S'17 years ago'
p3359
sS'Founded'
p3360
S'1999'
p3361
sS'Location'
p3362
S'Bay Area'
p3363
sS'Total funding'
p3364
S'$21M'
p3365
sS'Stage'
p3366
S'Public'
p3367
ssg3
(lp3368
Vdreamfactory
p3369
aVoracle-cx
p3370
aVmixpanel
p3371
aVzencoder
p3372
aVnetwork-solutions-domain-registration
p3373
aVadobe-activation-adobe-dynamic-tag-management
p3374
aVcloveretl
p3375
aVadobe-marketing-cloud
p3376
aVeasydns-hosting
p3377
aVgoogle-drive
p3378
aVadobe-air
p3379
aVcrashplan
p3380
aVatomic
p3381
aVapache-kafka
p3382
aVgo
p3383
aVcitrix-xenapp
p3384
aVamazon-route-53
p3385
aVdnsimple
p3386
aVsharepoint
p3387
aVowler
p3388
aVcybersource
p3389
aVsauce-labs
p3390
aVtaulia
p3391
aVamazon-ec2
p3392
aVstarmobile
p3393
aVsmartsheet
p3394
aVsharethis
p3395
aVdns-made-easy
p3396
aVwufoo
p3397
aVcloud9
p3398
aVrubicon-project
p3399
aVdrawloop
p3400
aVtucows-domain-registration
p3401
aVeventboard
p3402
aVprezi
p3403
aVmicrostrategy
p3404
aVgoogle-domains
p3405
aVconnectifier
p3406
aVgetfeedback
p3407
aVmicrosoft-office-365
p3408
aVebsta
p3409
aVsoapui
p3410
aVcyfe
p3411
aVperiscope-data
p3412
aVsteelbrick
p3413
aVgodaddy-domain-registration
p3414
aVcrmfusion
p3415
aVrecaptcha
p3416
aVsalestools
p3417
aVadroll
p3418
aVbrightcove-videocloud
p3419
aVnginx
p3420
aVcloudera
p3421
aVdecibelinsight
p3422
aVtwilio
p3423
aVtruste
p3424
aVcitrix-gotomeeting
p3425
aVsnapapp
p3426
aVbombora
p3427
aVgengo
p3428
aVapache-hadoop
p3429
aVlanyon-regonline
p3430
aVnew-relic
p3431
aVcraft-cms
p3432
aVcloudflare
p3433
aVpagerduty
p3434
aVakamai-intelligent-platform
p3435
aVlanyon-smart-hotel-cloud
p3436
aVnext-caller
p3437
aVsematext
p3438
aVlaunchkit
p3439
aVrecurly
p3440
aVgoogle-tag-manager
p3441
aVfundersclub
p3442
aVangellist-jobs
p3443
aVneustar-ultradns
p3444
aVqtest
p3445
aVleadspace
p3446
aVgoogle-analytics
p3447
aVmulesoft
p3448
aVzuora
p3449
aVadobe-target
p3450
aVcloudamqp
p3451
aVdribbble-jobs
p3452
aV6sense
p3453
aVmodernizr
p3454
aVslack
p3455
aVdynamicsignal
p3456
aVbubblus
p3457
aVleadsift
p3458
aVzerigo-dns
p3459
aVanaplan
p3460
aVxactly
p3461
aVaddtoany
p3462
aVdigicert
p3463
aVwebdam
p3464
aVservicesource
p3465
aVdatadog
p3466
aVvisual-website-optimizer
p3467
aVconcur
p3468
aVmandrill
p3469
aVcirrus-insight
p3470
aVworkbooks
p3471
aVlucidchart
p3472
aVredis
p3473
aVentelo
p3474
aVgeotrust-ssl
p3475
aVapache-pig
p3476
aVpointdrive
p3477
aVtaboola
p3478
aVretention-science
p3479
aVmongodb
p3480
aVgraphite
p3481
aVlogikcull
p3482
aVjell
p3483
aVinformatica
p3484
aVscripted
p3485
aVmotionmail
p3486
aVgoogle-apps-for-work
p3487
aVatlassian-jira
p3488
aVping-identity
p3489
aVdyn-dns
p3490
aVcreately
p3491
aVcrazyegg
p3492
aVstillalive
p3493
aVdrupal
p3494
aVeasydns-domain-registration
p3495
aVapttus
p3496
aVvidyard
p3497
aVbox
p3498
aVamazon-ses
p3499
aVextrahop
p3500
aVc-1001
p3501
aVstatsocial
p3502
aValignstar
p3503
aVsolid
p3504
aVblue-jeans-network
p3505
aVcb-insights
p3506
aVon24
p3507
ag2680
aVinvision
p3508
aVgoogle-maps
p3509
aVpropeller-crm
p3510
aVkranz-and-associates
p3511
aVliveops-cloud-contact-center
p3512
aVcloudinary
p3513
aVelasticsearch
p3514
aVinspectlet
p3515
aVadobe-audience-manager
p3516
aVsiftery
p3517
aVforesee
p3518
aVfreshdesk
p3519
aVdocusign
p3520
aVmadcap-flare
p3521
aVleankit
p3522
aVlitmus
p3523
aVbug-track
p3524
aVthe-trade-desk
p3525
aVyahoo-analytics-flurry
p3526
aVsquare
p3527
aVgit-tower
p3528
aVwebhose
p3529
aVexplee
p3530
aVibm-cloudant
p3531
aVhipchat
p3532
aVyoucanbookme
p3533
aVdistribution-engine-by-nc-squared
p3534
aVdemandbase
p3535
aVquantcast-measure
p3536
aVdiffbot
p3537
aVcloudpassage
p3538
aVdocalytics
p3539
aVzoominfo
p3540
aVjobvite
p3541
aVtotango
p3542
aVheroku
p3543
aVgoogle-fonts
p3544
aVwordpress
p3545
aVadobe-esign-services-formerly-echosign
p3546
aVapache-solr
p3547
aVuxpin
p3548
aVrapid7-nexpose
p3549
aVvalidately
p3550
aVsymantec-ssl
p3551
aVfileboard
p3552
aVkanjoya-perception-for-workforce-intelligence
p3553
aVfacebook-at-work
p3554
aVperforce
p3555
aVmarketo
p3556
aVpebblepost
p3557
aVbalsamiq
p3558
aVdisqus
p3559
aVgithub
p3560
aVheap
p3561
aVcalligraphy
p3562
aVwistia
p3563
aVappnexus
p3564
aVfeedly
p3565
aVjquery
p3566
aVchef
p3567
aVterminus
p3568
aVultraserve
p3569
aVeverwise
p3570
aVtinderbox
p3571
aVrallyverse
p3572
aVatlassian-bitbucket
p3573
aVchartbeat
p3574
aVmadison-logic
p3575
aVapache-lucene
p3576
aVbluenose
p3577
aVxendo
p3578
aVsafenames-domain-registration
p3579
aVapiary
p3580
aVmarkmonitor-domain-management
p3581
aVnetapp
p3582
aVriverbed-application-performance-platform
p3583
aVsap-businessobjects-bi
p3584
aVpogo
p3585
aVtrello
p3586
aVyesware
p3587
aVdo
p3588
aVfullcontact
p3589
aVjobmount
p3590
aVtowerdata
p3591
aVsniply
p3592
aVeverstring
p3593
aVphpstorm
p3594
aVapache-web-server
p3595
aVdropbox
p3596
aVcleardb
p3597
aVcaptora
p3598
aVkaspersky-endpoint-protection
p3599
aVoracle-eloqua
p3600
aVtellapart
p3601
aVredseal
p3602
aVpaw
p3603
aVlead-liaison
p3604
aVadobe-analytics
p3605
aVsendgrid
p3606
aVforgerock
p3607
aVmarin-audience-marketing-suite
p3608
aVworkday
p3609
aVleveleleven
p3610
aVstorify
p3611
aVjenkins
p3612
aVion-interactive
p3613
aVlithium
p3614
aVguidespark
p3615
aValtify
p3616
aVphusion-passenger
p3617
aVopinionlab
p3618
aVadobe-flash
p3619
aVintercom
p3620
aVoracle-iplanet-web-server
p3621
aVtweetdeck
p3622
aVspiceworks
p3623
aVmicrosoft-sql-server
p3624
aVaddthis
p3625
aVkeas
p3626
aVexpensify
p3627
aVcoupa-unified-spend-suite
p3628
aVcoreos
p3629
aVsplunk
p3630
aVpuppet-labs
p3631
aVpostmark
p3632
aVsegment
p3633
aVberdrock-data
p3634
aVfluid-ui
p3635
aVedcast
p3636
aVcitrix-xendesktop
p3637
aVmicrosoft-outlook
p3638
aVbadgeville
p3639
aVelastic-kibana
p3640
aVbootstrap
p3641
aVoracle-database
p3642
aVhockeyapp
p3643
aVtealium
p3644
aVzendesk
p3645
aVsencha
p3646
aVoracle-hyperion-planning
p3647
asg79
(lp3648
S'B2B'
p3649
aS'SaaS'
p3650
aS'Analytics'
p3651
aS'Cloud Computing'
p3652
aS'Enterprise Software'
p3653
aS'Human Resources Hr'
p3654
assS'pingboard'
p3655
(dp3656
g10
(dp3657
S'Acquisitions'
p3658
S'0'
p3659
sS'Growth score'
p3660
S'365'
p3661
sS'Mindshare score'
p3662
S'353'
p3663
sS'Employees'
p3664
S'14'
p3665
sS'Last funding'
p3666
S'2 years ago'
p3667
sS'Founded'
p3668
S'2013'
p3669
sS'Location'
p3670
S'Austin'
p3671
sS'Total funding'
p3672
S'$2M'
p3673
sS'Stage'
p3674
S'Pre-Series A'
p3675
ssg3
(lp3676
Vadobe-photoshop
p3677
aVuservoice
p3678
aVheap
p3679
aVworking-planet
p3680
aVadobe-typekit
p3681
aVdocusign
p3682
aVwistia
p3683
aVgoogle-apps-for-work
p3684
aVredis-labs
p3685
aVfacebook-ads
p3686
aVsumome
p3687
aVgoogle-voice
p3688
aVtypepad
p3689
aVtrello
p3690
aVfilestack
p3691
aVpivotal-tracker
p3692
aVdisqus
p3693
aVcircleci
p3694
aVangellist-jobs
p3695
aVruby-on-rails
p3696
aVsharethis
p3697
aVruby
p3698
aVhotjar
p3699
aVsiftery
p3700
aVpapertrail
p3701
aVgoogle-hangouts
p3702
aVevernote
p3703
aVheroku
p3704
aVtwitter-ads
p3705
aVwordpress
p3706
aVsurveymonkey
p3707
aVgodaddy-domain-registration
p3708
aVadobe-illustrator
p3709
aVeshares
p3710
aVgodaddy-ssl
p3711
aVfullstory
p3712
aVbonsai
p3713
aVmoz
p3714
aVgoogle-adwords
p3715
aVsalesforceiq-crm
p3716
aVrightsignature
p3717
aVgoogle-fonts
p3718
aVmarkmonitor-domain-management
p3719
aVbuffer
p3720
aVintercom
p3721
aVoptimizely
p3722
aVjavascript
p3723
aVadroll
p3724
aVoutreach
p3725
aVmailchimp
p3726
aVjoinme
p3727
aVd3js
p3728
aVstripe
p3729
aVtwilio
p3730
aVcitrix-gotomeeting
p3731
aVdropbox
p3732
aVconversionruler
p3733
aVsegment
p3734
aVgoogle-analytics
p3735
aVslack
p3736
aVjquery
p3737
aVnew-relic
p3738
aVgithub
p3739
aVpostgresql
p3740
aVmixpanel
p3741
aVmailgun
p3742
aVmaxcdn
p3743
aVgoogle-maps
p3744
aVlibrato
p3745
aVbootstrap
p3746
aVgoogle-drive
p3747
aVlinkedin-ads
p3748
aVhockeyapp
p3749
aVbing-ads
p3750
aVintuit-quickbooks
p3751
aVairbrake
p3752
aVdns-made-easy
p3753
aVzopim
p3754
aVlever
p3755
aVamazon-s3
p3756
aVbrowserstack
p3757
aVbxslider
p3758
aVgemfury
p3759
aVmarvel
p3760
asg79
(lp3761
S'B2B'
p3762
aS'SaaS'
p3763
aS'Enterprise Software'
p3764
aS'Human Resources'
p3765
aS'Human Resources Hr'
p3766
aS'Mobile'
p3767
aS'Software Development'
p3768
assS'sharethrough'
p3769
(dp3770
g10
(dp3771
S'Acquisitions'
p3772
S'1'
p3773
sS'Growth score'
p3774
S'478'
p3775
sS'Mindshare score'
p3776
S'341'
p3777
sS'Employees'
p3778
S'185'
p3779
sS'Last funding'
p3780
S'2 years ago'
p3781
sS'Founded'
p3782
S'2008'
p3783
sS'Location'
p3784
S'Bay Area'
p3785
sS'Total funding'
p3786
S'$28M'
p3787
sS'Stage'
p3788
S'Late'
p3789
ssg3
(lp3790
Vmixpanel
p3791
aVangellist-jobs
p3792
aVcronitor
p3793
aVelevio
p3794
aVmysql
p3795
aVradford-gts
p3796
aVdice
p3797
aVruby-on-rails
p3798
aVhubspot-marketing-platform
p3799
aVokta
p3800
aVmicrosoft-office-365
p3801
aVcrimson-hexagon
p3802
aVjoinme
p3803
aVintercom
p3804
aVadroll
p3805
aVscala
p3806
aVsalesforce-sales-cloud
p3807
aVnginx
p3808
aVjenkins
p3809
aVamazon-ec2
p3810
aVslack
p3811
aVvizu
p3812
aVnew-relic
p3813
aVmetamarkets
p3814
aVlever
p3815
aVgoogle-analytics
p3816
aVsublime-text
p3817
aVnamely
p3818
aVdigicert
p3819
aVamazon-route-53
p3820
aVmandrill
p3821
aVgoogle-hangouts
p3822
aVgodaddy-domain-registration
p3823
aVbenetrac
p3824
aVgoogle-apps-for-work
p3825
aVjavascript
p3826
aVinvision
p3827
aVradford-pre-ipo
p3828
aVamazon-ses
p3829
aVevernote
p3830
aVadp-streamline
p3831
aVpaylocity
p3832
aVbox
p3833
aVwageworks
p3834
aVlibrato
p3835
aVglassdoor-jobs
p3836
aVintuit-quickbooks
p3837
aVcredpr
p3838
aVhackerrank
p3839
aVdocusign
p3840
aVdatabricks
p3841
aVmarketo
p3842
aVadp-totalsource
p3843
aVapache-spark
p3844
aVgit
p3845
aVjava
p3846
aVsiftery
p3847
aVjobvite
p3848
aVheroku
p3849
aVlightbend-reactive-platform
p3850
aVchartbeat
p3851
aVfullstory
p3852
aVsimplyhired
p3853
aVlinkedin-recruiter
p3854
aVgoogle-doubleclick
p3855
aVhubspot-crm
p3856
aVappnexus
p3857
aVapache-hadoop
p3858
aVradford-gss
p3859
aVsilicon-legal
p3860
aVamazon-s3
p3861
aVtrello
p3862
aVbackbonejs
p3863
aVskype
p3864
aVhaml
p3865
aVpivotal-tracker
p3866
aVgoogle-fonts
p3867
aVstack-overflow-jobs
p3868
aVcoffeescript
p3869
aVpivotal
p3870
aV33across
p3871
aVsnowflake
p3872
aVmailchimp
p3873
aVexpensify
p3874
aVhired
p3875
aVstripe
p3876
aVdropbox
p3877
aVgithub
p3878
aVlooker
p3879
aVbootstrap
p3880
aVzendesk
p3881
asg79
(lp3882
S'Advertising'
p3883
aS'B2B'
p3884
aS'Advertising'
p3885
aS'Enterprise Software'
p3886
aS'Marketing'
p3887
aS'Mobile'
p3888
assS'amplitude'
p3889
(dp3890
g10
(dp3891
S'Acquisitions'
p3892
S'0'
p3893
sS'Growth score'
p3894
S'564'
p3895
sS'Mindshare score'
p3896
S'477'
p3897
sS'Employees'
p3898
S'47'
p3899
sS'Last funding'
p3900
S'3 months ago'
p3901
sS'Founded'
p3902
S'2012'
p3903
sS'Location'
p3904
S'Bay Area'
p3905
sS'Total funding'
p3906
S'$26M'
p3907
sS'Stage'
p3908
S'Series B'
p3909
ssg3
(lp3910
Vsalesloft
p3911
aVangellist-jobs
p3912
aVadobe-typekit
p3913
aVwistia
p3914
aVmodernizr
p3915
aVboomerang-for-gmail
p3916
aVmicrosoft-office-365
p3917
aVgoogle-drive
p3918
aVdropbox
p3919
aVamazon-route-53
p3920
aVsalesforce-marketing-cloud
p3921
aVtornado
p3922
aVmarketo
p3923
aVamazon-cloudfront
p3924
aVamazon-redshift
p3925
aVsharethis
p3926
aVzenefits
p3927
aVsiftery
p3928
aVredis
p3929
aVpython
p3930
aVwordpress
p3931
aVcomodo-ssl
p3932
aVbugsnag
p3933
aVgoogle-apps-for-work
p3934
aVatlassian-jira
p3935
aVjoinme
p3936
aVbuffer
p3937
aVdoorbell
p3938
aVadroll
p3939
aVaddthis
p3940
aVmailchimp
p3941
aVsalesforce-sales-cloud
p3942
aVnginx
p3943
aVexpensify
p3944
aVenom-domain-registration
p3945
aVkeen-io
p3946
aVlever
p3947
aVpostgresql
p3948
aVdisqus
p3949
aVsegment
p3950
aVgoogle-analytics
p3951
aVjquery
p3952
aVgithub
p3953
aVpagerduty
p3954
aVslack
p3955
aVifttt
p3956
aVhotjar
p3957
aVbootstrap
p3958
aVgoogle-fonts
p3959
aVgoogle-tag-manager
p3960
aVgravatar
p3961
aVjavascript
p3962
aVzendesk
p3963
aVuberconference
p3964
aVwhalealerts
p3965
aVdocker
p3966
aVstripe
p3967
asg79
(lp3968
S'B2B'
p3969
aS'Analytics'
p3970
aS'Finance'
p3971
aS'Mobile'
p3972
aS'Software Development'
p3973
assS'3q-digital'
p3974
(dp3975
g10
(dp3976
S'Acquisitions'
p3977
S'0'
p3978
sS'Growth score'
p3979
S'72'
p3980
sS'Mindshare score'
p3981
S'72'
p3982
sS'Employees'
p3983
g282
sS'Last funding'
p3984
g100
sS'Founded'
p3985
S'2008'
p3986
sS'Location'
p3987
S'Bay Area'
p3988
sS'Total funding'
p3989
S'Undisclosed'
p3990
sS'Stage'
p3991
S'Acquired'
p3992
ssg3
(dp3993
sg79
(lp3994
S'B2B'
p3995
aS'Advertising'
p3996
aS'Enterprise Software'
p3997
assS'digify'
p3998
(dp3999
g10
(dp4000
S'Acquisitions'
p4001
S'0'
p4002
sS'Growth score'
p4003
S'180'
p4004
sS'Mindshare score'
p4005
S'163'
p4006
sS'Employees'
p4007
S'18'
p4008
sS'Last funding'
p4009
g100
sS'Founded'
p4010
S'2011'
p4011
sS'Location'
p4012
S'Bay Area'
p4013
sS'Total funding'
p4014
S'Undisclosed'
p4015
sS'Stage'
p4016
S'Pre-Series A'
p4017
ssg3
(lp4018
Vsquarespace
p4019
aVadobe-typekit
p4020
aVmicrosoft-office-365
p4021
aVtypeform
p4022
aVdigicert
p4023
aVquantcast-measure
p4024
aVgoogle-fonts
p4025
aVsiftery
p4026
aVinspectlet
p4027
aVintercom
p4028
aVgoogle-apps-for-work
p4029
aVhello-bar
p4030
aVoptimizely
p4031
aVadroll
p4032
aVaddthis
p4033
aVnginx
p4034
aVdropbox
p4035
aVdisqus
p4036
aVsegment
p4037
aVjquery
p4038
aVslack
p4039
aVifttt
p4040
aVzapier
p4041
aViubenda
p4042
aVtypography
p4043
aVmedia-temple-hosting
p4044
aVgoogle-analytics
p4045
asg79
(lp4046
S'B2B'
p4047
aS'Media'
p4048
aS'Mobile'
p4049
aS'Security'
p4050
assS'sana-commerce'
p4051
(dp4052
g10
(dp4053
S'Acquisitions'
p4054
S'0'
p4055
sS'Growth score'
p4056
S'81'
p4057
sS'Mindshare score'
p4058
S'81'
p4059
sS'Employees'
p4060
g282
sS'Last funding'
p4061
g100
sS'Founded'
p4062
S'2008'
p4063
sS'Location'
p4064
S'Rotterdam'
p4065
sS'Total funding'
p4066
S'Undisclosed'
p4067
sS'Stage'
p4068
S'No Known Funding'
p4069
ssg3
(lp4070
Vsalesloft
p4071
aVunbounce
p4072
aVuservoice
p4073
aVdnn-evoq-engage
p4074
aVhootsuite
p4075
aVdropbox
p4076
aVoptinmonster
p4077
aVtrello
p4078
aVmarketo
p4079
aVsharethis
p4080
aVsiftery
p4081
aVwordpress
p4082
aVcomodo-ssl
p4083
aVclicky
p4084
aVcrazyegg
p4085
aVmicrosoft-dynamics-crm
p4086
aVgoogle-adwords
p4087
aVinspectlet
p4088
aVrecaptcha
p4089
aVcasengo
p4090
aVadroll
p4091
aVnginx
p4092
aVlead-forensics
p4093
aVdisqus
p4094
aVjquery
p4095
aVmicrosoft-outlook
p4096
aVoptimizely
p4097
aVbootstrap
p4098
aVgoogle-fonts
p4099
aVgoogle-tag-manager
p4100
aVgoogle-analytics
p4101
asg79
(lp4102
ssS'education-elements'
p4103
(dp4104
g3
(dp4105
ssS'timeion'
p4106
(dp4107
g10
(dp4108
S'Acquisitions'
p4109
S'0'
p4110
sS'Growth score'
p4111
S'97'
p4112
sS'Mindshare score'
p4113
S'97'
p4114
sS'Employees'
p4115
g282
sS'Last funding'
p4116
g100
sS'Founded'
p4117
g100
sS'Location'
p4118
S'Warsaw'
p4119
sS'Total funding'
p4120
S'Undisclosed'
p4121
sS'Stage'
p4122
S'No Known Funding'
p4123
ssg3
(lp4124
Vtrello
p4125
aVbraintree-payments
p4126
aVworkable
p4127
aVmodernizr
p4128
aVmicrosoft-office-365
p4129
aVuservoice
p4130
aVevernote
p4131
aVmandrill
p4132
aVgoogle-fonts
p4133
aVsendgrid
p4134
aVsiftery
p4135
aVgeotrust-ssl
p4136
aVhelpsite
p4137
aVwordpress
p4138
aVwoopra
p4139
aVintercom
p4140
aVgoogle-apps-for-work
p4141
aVatlassian-jira
p4142
aVtableau-software
p4143
aVbuffer
p4144
aVhello-bar
p4145
aVoptimizely
p4146
aVclicky
p4147
aVadroll
p4148
aVknol
p4149
aVmailchimp
p4150
aVinvision
p4151
aVheap
p4152
aVcanva
p4153
aVdropbox
p4154
aVdisqus
p4155
aVsegment
p4156
aVjquery
p4157
aVgithub
p4158
aVslack
p4159
aVnginx
p4160
aVgoogle-maps
p4161
aVzapier
p4162
aVbootstrap
p4163
aVgoogle-tag-manager
p4164
aVamplitude
p4165
aVgoogle-analytics
p4166
aVadobe-marketing-cloud
p4167
asg79
(lp4168
S'Mobile'
p4169
assS'dreamit-ventures'
p4170
(dp4171
g10
(dp4172
S'Acquisitions'
p4173
S'0'
p4174
sS'Growth score'
p4175
S'30'
p4176
sS'Mindshare score'
p4177
S'-11'
p4178
sS'Employees'
p4179
S'80'
p4180
sS'Last funding'
p4181
S'3 years ago'
p4182
sS'Founded'
p4183
S'2008'
p4184
sS'Location'
p4185
S'Philadelphia'
p4186
sS'Total funding'
p4187
S'Undisclosed'
p4188
sS'Stage'
p4189
S'Pre-Series A'
p4190
ssg3
(dp4191
sg79
(lp4192
S'B2B'
p4193
aS'Enterprise Software'
p4194
aS'Finance'
p4195
aS'Mobile'
p4196
assS'inbep'
p4197
(dp4198
g10
(dp4199
S'Acquisitions'
p4200
S'0'
p4201
sS'Growth score'
p4202
S'0'
p4203
sS'Mindshare score'
p4204
S'0'
p4205
sS'Employees'
p4206
g282
sS'Last funding'
p4207
g100
sS'Founded'
p4208
g100
sS'Location'
p4209
g282
sS'Total funding'
p4210
S'Undisclosed'
p4211
sS'Stage'
p4212
S'No Known Funding'
p4213
ssg3
(lp4214
Vsphinx-search
p4215
aVatlassian-bitbucket
p4216
aVtrello
p4217
aVnodejs
p4218
aVbackbonejs
p4219
aVbeanstalk
p4220
aVamazon-ec2
p4221
aVpipedrive
p4222
aVgoogle-fonts
p4223
aVsiftery
p4224
aVredis
p4225
aVolark
p4226
aVwordpress
p4227
aVhootsuite
p4228
aVcloudflare
p4229
aVmariadb
p4230
aVgoogle-apps-for-work
p4231
aVmongodb
p4232
aVoptimizely
p4233
aVjavascript
p4234
aVadroll
p4235
aVinspectlet
p4236
aVmailchimp
p4237
aVmention
p4238
aVdisqus
p4239
aVhtml5
p4240
aVubuntu
p4241
aVdropbox
p4242
aVphp
p4243
aVpostgresql
p4244
aVslack
p4245
aVmailgun
p4246
aVnginx
p4247
aVbootstrap
p4248
aVgoogle-analytics
p4249
aVrequirejs
p4250
asg79
(lp4251
ssS'talkdesk'
p4252
(dp4253
g10
(dp4254
S'Acquisitions'
p4255
S'0'
p4256
sS'Growth score'
p4257
S'711'
p4258
sS'Mindshare score'
p4259
S'348'
p4260
sS'Employees'
p4261
S'197'
p4262
sS'Last funding'
p4263
S'a year ago'
p4264
sS'Founded'
p4265
S'2011'
p4266
sS'Location'
p4267
S'Bay Area'
p4268
sS'Total funding'
p4269
S'$24M'
p4270
sS'Stage'
p4271
S'Series A'
p4272
ssg3
(lp4273
Vlinode
p4274
aVuservoice
p4275
aVangellist-jobs
p4276
aVadobe-typekit
p4277
aVdocusign
p4278
aVwistia
p4279
aVmicrosoft-office-365
p4280
aVbackbonejs
p4281
aVfont-awesome
p4282
aVbitium
p4283
aVgeotrust-ssl
p4284
aVtypepad
p4285
aVamazon-route-53
p4286
aVsalesforce-marketing-cloud
p4287
aVsiftery
p4288
aVmarketo
p4289
aVgogohire
p4290
aVwp-engine
p4291
aVruby-on-rails
p4292
aVgoogle-fonts
p4293
aVruby
p4294
aVsendgrid
p4295
aVresque
p4296
aVredis
p4297
aVmarin-audience-marketing-suite
p4298
aVsinatra
p4299
aVasana
p4300
aVhubspot-marketing-platform
p4301
aVgodaddy-domain-registration
p4302
aVmongodb
p4303
aVpromoterio
p4304
aVbugsnag
p4305
aVtoofr
p4306
aVoptimizely
p4307
aVsidekiq-pro
p4308
aVgoogle-apps-for-work
p4309
aVsumome
p4310
aVsalesforceiq-crm
p4311
aVnew-relic
p4312
aVbuffer
p4313
aVintercom
p4314
aVrecaptcha
p4315
aVadobe-flash
p4316
aVadroll
p4317
aVoutreach
p4318
aVinterviewed
p4319
aVsalesforce-sales-cloud
p4320
aVnginx
p4321
aVexpensify
p4322
aVgreenhouse
p4323
aVtwilio
p4324
aVwordpress
p4325
aVcitrix-gotomeeting
p4326
aVinsightsquared
p4327
aVsegment
p4328
aVblue-jeans-network
p4329
aVclearbit
p4330
aVperfect-audience
p4331
aVgithub
p4332
aVslack
p4333
aVmailgun
p4334
aVturnto
p4335
aVchef
p4336
aVbootstrap
p4337
aVgoogle-drive
p4338
aVrabbitmq
p4339
aVgoogle-maps
p4340
aVzendesk
p4341
aVusersnap
p4342
aVgoogle-analytics
p4343
aVlanding-jobs
p4344
aVsalesforce-service-cloud
p4345
asg79
(lp4346
S'B2B'
p4347
aS'SaaS'
p4348
aS'Customer Support'
p4349
aS'Enterprise Software'
p4350
aS'Marketing'
p4351
assS'jobbatical'
p4352
(dp4353
g10
(dp4354
S'Acquisitions'
p4355
S'0'
p4356
sS'Growth score'
p4357
S'828'
p4358
sS'Mindshare score'
p4359
S'813'
p4360
sS'Employees'
p4361
S'15 '
p4362
sS'Last funding'
p4363
S'6 months ago'
p4364
sS'Founded'
p4365
S'2014'
p4366
sS'Location'
p4367
S'Tallinn'
p4368
sS'Total funding'
p4369
S'$2M'
p4370
sS'Stage'
p4371
S'Pre-Series A'
p4372
ssg3
(lp4373
Vtrello
p4374
aVyesware
p4375
aVnodejs
p4376
aVhellosign
p4377
aVgoogle-apps-for-work
p4378
aVtypeform
p4379
aVnotify
p4380
aVteleport-sundial
p4381
aVpipedrive
p4382
aVmandrill
p4383
aVgoogle-fonts
p4384
aVsiftery
p4385
aVgoogle-hangouts
p4386
aVasana
p4387
aVcomodo-ssl
p4388
aVgodaddy-dns
p4389
aVgoogle-adwords
p4390
aVbuffer
p4391
aVjavascript
p4392
aVadroll
p4393
aVmailchimp
p4394
aVinvision
p4395
aVhtml5
p4396
aVbraintree-payments
p4397
aVphp
p4398
aVsegment
p4399
aVjquery
p4400
aVpostgresql
p4401
aVslack
p4402
aVmention
p4403
aVgoogle-maps
p4404
aVzapier
p4405
aVatlassian-bitbucket
p4406
aVgoogle-tag-manager
p4407
aVzendesk
p4408
aVzopim
p4409
aVgoogle-analytics
p4410
asg79
(lp4411
S'B2B'
p4412
aS'B2C'
p4413
aS'Marketplace'
p4414
aS'Career / Job Search'
p4415
aS'Human Resources Hr'
p4416
assS'the-jar-group'
p4417
(dp4418
g10
(dp4419
S'Acquisitions'
p4420
S'0'
p4421
sS'Growth score'
p4422
S'-39'
p4423
sS'Mindshare score'
p4424
S'-39'
p4425
sS'Employees'
p4426
g2529
sS'Last funding'
p4427
g100
sS'Founded'
p4428
S'2006'
p4429
sS'Location'
p4430
S'New York'
p4431
sS'Total funding'
p4432
S'Undisclosed'
p4433
sS'Stage'
p4434
S'No Known Funding'
p4435
ssg3
(dp4436
sg79
(lp4437
S'B2B'
p4438
aS'Advertising'
p4439
aS'Marketing'
p4440
assS'paydock'
p4441
(dp4442
g3
(dp4443
ssS'iwerx-advertising'
p4444
(dp4445
g3
(dp4446
ssS'boon'
p4447
(dp4448
g3
(dp4449
ssS'magazinescom'
p4450
(dp4451
g3
(dp4452
ssS'tenmax-ad-tech-lab'
p4453
(dp4454
g3
(dp4455
ssS'koombea'
p4456
(dp4457
g10
(dp4458
S'Acquisitions'
p4459
S'0'
p4460
sS'Growth score'
p4461
S'32'
p4462
sS'Mindshare score'
p4463
S'32'
p4464
sS'Employees'
p4465
S'89'
p4466
sS'Last funding'
p4467
g100
sS'Founded'
p4468
S'2007'
p4469
sS'Location'
p4470
S'New York'
p4471
sS'Total funding'
p4472
S'Undisclosed'
p4473
sS'Stage'
p4474
S'No Known Funding'
p4475
ssg3
(lp4476
Vsketch
p4477
aVsiftery
p4478
aVtrello
p4479
aVnetsuite-erp
p4480
aVhelp-scout
p4481
aVinterstate-analytics
p4482
aVmixpanel
p4483
aVdnsimple
p4484
aVwp-engine
p4485
aVgoogle-fonts
p4486
aVdns-made-easy
p4487
aVlinode
p4488
aVwufoo
p4489
aVgeotrust-ssl
p4490
aVheroku
p4491
aVheatmap
p4492
aVwordpress
p4493
aVsalesforce-pardot
p4494
aVgoogle-apps-for-work
p4495
aVbasecamp
p4496
aVdigitalocean
p4497
aVintercom
p4498
aVoptimizely
p4499
aVadroll
p4500
aVsalesforce-sales-cloud
p4501
aVnginx
p4502
aVflickr-api
p4503
aVstripe
p4504
aVbraintree-payments
p4505
aVdropbox
p4506
aVsegment
p4507
aVtoutapp
p4508
aVnew-relic
p4509
aVzenefits
p4510
aVgithub
p4511
aVslack
p4512
aVpandadoc
p4513
aVdropbox-paper
p4514
aVgoogle-tag-manager
p4515
aVtextmate
p4516
aVgoogle-analytics
p4517
asg79
(lp4518
S'B2B'
p4519
aS'Consulting'
p4520
aS'Marketing'
p4521
assS'thelions'
p4522
(dp4523
g10
(dp4524
S'Acquisitions'
p4525
S'0'
p4526
sS'Growth score'
p4527
S'0'
p4528
sS'Mindshare score'
p4529
S'0'
p4530
sS'Employees'
p4531
g282
sS'Last funding'
p4532
g100
sS'Founded'
p4533
S'2010'
p4534
sS'Location'
p4535
g282
sS'Total funding'
p4536
S'Undisclosed'
p4537
sS'Stage'
p4538
S'No Known Funding'
p4539
ssg3
(lp4540
Vjquery
p4541
aVyahoo-ui-library
p4542
aVgoogle-apps-for-work
p4543
aVdocusign
p4544
aVzenefits
p4545
aVoptimizely
p4546
aVsiftery
p4547
aVadroll
p4548
aVgusto
p4549
aVmedia-temple-hosting
p4550
aVgoogle-maps
p4551
aVgoogle-fonts
p4552
aVwordpress
p4553
aVadstage
p4554
aVgoogle-analytics
p4555
aVapache-web-server
p4556
aVmarkmonitor-domain-management
p4557
asg79
(lp4558
ssS'compstak'
p4559
(dp4560
g10
(dp4561
S'Acquisitions'
p4562
S'0'
p4563
sS'Growth score'
p4564
S'151'
p4565
sS'Mindshare score'
p4566
S'125'
p4567
sS'Employees'
p4568
S'49'
p4569
sS'Last funding'
p4570
S'2 years ago'
p4571
sS'Founded'
p4572
S'2011'
p4573
sS'Location'
p4574
S'New York'
p4575
sS'Total funding'
p4576
S'$5M'
p4577
sS'Stage'
p4578
S'Series A'
p4579
ssg3
(lp4580
Vtrello
p4581
aVyesware
p4582
aVangellist-jobs
p4583
aVnodejs
p4584
aVadobe-marketing-cloud
p4585
aVboomerang-for-gmail
p4586
aVhiver-grexit
p4587
aVtoptal
p4588
aVbackbonejs
p4589
aVgoogle-drive
p4590
aVhandlebarsjs
p4591
aVmysql
p4592
aVamazon-route-53
p4593
aVzenefits
p4594
aVrecruiterbox
p4595
aVdisqus
p4596
aVjava
p4597
aVscala
p4598
aVgoogle-fonts
p4599
aVcirrus-insight
p4600
aVsendgrid
p4601
aVsiftery
p4602
aVgeotrust-ssl
p4603
aVwebpack
p4604
aVhubspot-marketing-platform
p4605
aVsurveymonkey
p4606
aVgodaddy-domain-registration
p4607
aVmongodb
p4608
aVfullstory
p4609
aVdropbox
p4610
aVgoogle-apps-for-work
p4611
aVatlassian-jira
p4612
aVjoinme
p4613
aVabacus
p4614
aVpython
p4615
aVintercom
p4616
aVoptimizely
p4617
aVsalesforce-datacom
p4618
aVadroll
p4619
aVmailchimp
p4620
aVsalesforce-sales-cloud
p4621
aVinvision
p4622
aVstripe
p4623
aVheap
p4624
aVhubspot-crm
p4625
aVamazon-ec2
p4626
aVsegment
p4627
aVinfusionsoft
p4628
aVsumome
p4629
aVappcues
p4630
aVgithub
p4631
aVslack
p4632
aVnginx
p4633
aVgoogle-maps
p4634
aVzapier
p4635
aVdjango
p4636
aVcloudinary
p4637
aVr
p4638
aVintuit-quickbooks
p4639
aVjavascript
p4640
aVzendesk
p4641
aVgoogle-analytics
p4642
aVmicrosoft-office-365
p4643
aVrequirejs
p4644
asg79
(lp4645
S'B2B'
p4646
aS'Marketplace'
p4647
aS'Enterprise Software'
p4648
aS'Finance'
p4649
aS'Real Estate'
p4650
assS'can-capital'
p4651
(dp4652
g10
(dp4653
S'Acquisitions'
p4654
S'0'
p4655
sS'Growth score'
p4656
S'-22'
p4657
sS'Mindshare score'
p4658
S'-22'
p4659
sS'Employees'
p4660
g282
sS'Last funding'
p4661
S'6 years ago'
p4662
sS'Founded'
p4663
S'1998'
p4664
sS'Location'
p4665
S'New York'
p4666
sS'Total funding'
p4667
S'$30M'
p4668
sS'Stage'
p4669
S'Late'
p4670
ssg3
(dp4671
sg79
(lp4672
S'B2B'
p4673
aS'Banking'
p4674
aS'Crowdfunding'
p4675
aS'E-Commerce'
p4676
aS'Finance'
p4677
aS'Human Resources Hr'
p4678
aS'Payments'
p4679
aS'Real Estate'
p4680
assS'izenda'
p4681
(dp4682
g10
(dp4683
S'Acquisitions'
p4684
S'0'
p4685
sS'Growth score'
p4686
S'123'
p4687
sS'Mindshare score'
p4688
S'101'
p4689
sS'Employees'
p4690
S'40'
p4691
sS'Last funding'
p4692
S'2 years ago'
p4693
sS'Founded'
p4694
S'2002'
p4695
sS'Location'
p4696
S'Atlanta'
p4697
sS'Total funding'
p4698
S'$3M'
p4699
sS'Stage'
p4700
S'Pre-Series A'
p4701
ssg3
(lp4702
Vhandshake
p4703
aVsiftery
p4704
aVadroll
p4705
aVrecaptcha
p4706
aVincapsula
p4707
aVglobalsign
p4708
aVhubspot-marketing-platform
p4709
aVsurveymonkey
p4710
aVregistercom-domain-registration
p4711
aVgoogle-analytics
p4712
asg79
(lp4713
S'B2B'
p4714
aS'SaaS'
p4715
aS'Analytics'
p4716
aS'Enterprise Software'
p4717
aS'Marketing'
p4718
assS'hiree'
p4719
(dp4720
g10
(dp4721
S'Acquisitions'
p4722
S'0'
p4723
sS'Growth score'
p4724
S'314'
p4725
sS'Mindshare score'
p4726
S'328'
p4727
sS'Employees'
p4728
S'79 '
p4729
sS'Last funding'
p4730
S'2 years ago'
p4731
sS'Founded'
p4732
S'2014'
p4733
sS'Location'
p4734
S'Bangalore'
p4735
sS'Total funding'
p4736
S'$3M'
p4737
sS'Stage'
p4738
S'Acquired'
p4739
ssg3
(lp4740
Vfrrole-scout
p4741
aVamazon-elastictranscoder
p4742
aVmicrosoft-office-365
p4743
aVtypeform
p4744
aVamazon-route-53
p4745
aVapache-web-server
p4746
aVjava
p4747
aVsiftery
p4748
aVheatmap
p4749
aVzoho-crm
p4750
aVgodaddy-domain-registration
p4751
aVgodaddy-ssl
p4752
aVgoogle-apps-for-work
p4753
aVrecaptcha
p4754
aVjavascript
p4755
aVadroll
p4756
aVmailchimp
p4757
aVmention
p4758
aVamazon-ses
p4759
aVamazon-ec2
p4760
aVslack
p4761
aVifttt
p4762
aVgoogle-maps
p4763
aVbootstrap
p4764
aVgoogle-tag-manager
p4765
aVgoogle-analytics
p4766
asg79
(lp4767
S'B2B'
p4768
aS'Human Resources Hr'
p4769
assS'pentaho'
p4770
(dp4771
g10
(dp4772
S'Acquisitions'
p4773
S'0'
p4774
sS'Growth score'
p4775
S'396'
p4776
sS'Mindshare score'
p4777
S'221'
p4778
sS'Employees'
p4779
S'315'
p4780
sS'Last funding'
p4781
S'4 years ago'
p4782
sS'Founded'
p4783
S'2004'
p4784
sS'Location'
p4785
S'Bay Area'
p4786
sS'Total funding'
p4787
S'$65M'
p4788
sS'Stage'
p4789
S'Acquired'
p4790
ssg3
(lp4791
Vrackspace-hosting
p4792
aVdocusign
p4793
aVmodernizr
p4794
aVintacct
p4795
aVapache-web-server
p4796
aVmarketo
p4797
aVjava
p4798
aVleandata
p4799
aVsiftery
p4800
aVmelbourne-it-domain-registration
p4801
aVgodaddy-ssl
p4802
aVbox
p4803
aVmicrosoft-office-365
p4804
aVsalesforceiq-crm
p4805
aVthelions
p4806
aVrecaptcha
p4807
aVadobe-flash
p4808
aVadroll
p4809
aVoutreach
p4810
aVaddthis
p4811
aVbrightcove-videocloud
p4812
aVsalesforce-sales-cloud
p4813
aVapache-tomcat
p4814
aVmicrosoft-outlook
p4815
aVcitrix-gotomeeting
p4816
aVdropbox
p4817
aVsnapapp
p4818
aVtoutapp
p4819
aVjquery
p4820
aVapache-http-server
p4821
aVpostgresql
p4822
aVdrupal
p4823
aVbootstrap
p4824
aVexpensify
p4825
aVgoogle-fonts
p4826
aVgoogle-tag-manager
p4827
aVtellapart
p4828
aVinsideview
p4829
aVzendesk
p4830
aVvzaar
p4831
aVgoogle-analytics
p4832
asg79
(lp4833
S'B2B'
p4834
aS'Direct Sales'
p4835
aS'SaaS'
p4836
aS'Analytics'
p4837
aS'Finance'
p4838
aS'Government'
p4839
aS'Healthcare'
p4840
aS'Retail'
p4841
aS'Software Development'
p4842
assS'hifrank'
p4843
(dp4844
g10
(dp4845
S'Acquisitions'
p4846
S'0'
p4847
sS'Growth score'
p4848
S'256'
p4849
sS'Mindshare score'
p4850
S'256'
p4851
sS'Employees'
p4852
g282
sS'Last funding'
p4853
g100
sS'Founded'
p4854
S'2014'
p4855
sS'Location'
p4856
S'New York'
p4857
sS'Total funding'
p4858
S'Undisclosed'
p4859
sS'Stage'
p4860
S'No Known Funding'
p4861
ssg3
(lp4862
Vtrello
p4863
aVangellist-jobs
p4864
aVmodernizr
p4865
aVsumome
p4866
aVgoogle-drive
p4867
aVmixpanel
p4868
aVamazon-route-53
p4869
aVmandrill
p4870
aVgoogle-fonts
p4871
aVsendgrid
p4872
aVsiftery
p4873
aVolark
p4874
aVcomodo-ssl
p4875
aVhootsuite
p4876
aVmoz
p4877
aVgoogle-apps-for-work
p4878
aVoptimizely
p4879
aVadobe-flash
p4880
aVadroll
p4881
aVstripe
p4882
aVamazon-ec2
p4883
aVslack
p4884
aVgoogle-analytics
p4885
asg79
(lp4886
S'B2C'
p4887
aS'Banking'
p4888
aS'Crowdfunding'
p4889
assS'course-report'
p4890
(dp4891
g10
(dp4892
S'Acquisitions'
p4893
S'0'
p4894
sS'Growth score'
p4895
S'505'
p4896
sS'Mindshare score'
p4897
S'495'
p4898
sS'Employees'
p4899
g763
sS'Last funding'
p4900
g100
sS'Founded'
p4901
S'2013'
p4902
sS'Location'
p4903
S'New York'
p4904
sS'Total funding'
p4905
S'Undisclosed'
p4906
sS'Stage'
p4907
S'Pre-Series A'
p4908
ssg3
(dp4909
sg79
(lp4910
S'B2B'
p4911
aS'B2C'
p4912
aS'Lead Generation'
p4913
aS'Education'
p4914
aS'Human Resources Hr'
p4915
assS'ou'
p4916
(dp4917
g3
(dp4918
ssS'the-raiders'
p4919
(dp4920
g3
(dp4921
ssS'foot-cardigan'
p4922
(dp4923
g10
(dp4924
S'Acquisitions'
p4925
S'0'
p4926
sS'Growth score'
p4927
S'224'
p4928
sS'Mindshare score'
p4929
S'224'
p4930
sS'Employees'
p4931
S'13'
p4932
sS'Last funding'
p4933
g100
sS'Founded'
p4934
S'2012'
p4935
sS'Location'
p4936
S'Dallas'
p4937
sS'Total funding'
p4938
S'Undisclosed'
p4939
sS'Stage'
p4940
S'No Known Funding'
p4941
ssg3
(dp4942
sg79
(lp4943
S'B2C'
p4944
aS'Food & Beverages'
p4945
assS'crowdtwist'
p4946
(dp4947
g10
(dp4948
S'Acquisitions'
p4949
S'0'
p4950
sS'Growth score'
p4951
S'56'
p4952
sS'Mindshare score'
p4953
S'19'
p4954
sS'Employees'
p4955
S'58'
p4956
sS'Last funding'
p4957
S'2 years ago'
p4958
sS'Founded'
p4959
S'2009'
p4960
sS'Location'
p4961
S'New York'
p4962
sS'Total funding'
p4963
S'$16M'
p4964
sS'Stage'
p4965
S'Series B'
p4966
ssg3
(lp4967
Vappriver
p4968
aVamazon-route-53
p4969
aVsalesforce-marketing-cloud
p4970
aVdemandbase
p4971
aVwp-engine
p4972
aVgoogle-fonts
p4973
aVsendgrid
p4974
aVsiftery
p4975
aVgeotrust-ssl
p4976
aVasana
p4977
aVwordpress
p4978
aVsurveymonkey
p4979
aVsalesforce-pardot
p4980
aVmicrosoft-office-365
p4981
aVnetwork-solutions-domain-registration
p4982
aVadroll
p4983
aVnginx
p4984
aVmarionette
p4985
aVdropbox
p4986
aVphp
p4987
aVofferpop
p4988
aVjquery
p4989
aVslack
p4990
aVgoogle-analytics
p4991
asg79
(lp4992
S'B2B'
p4993
aS'Advertising'
p4994
aS'Analytics'
p4995
aS'Enterprise Software'
p4996
aS'Marketing'
p4997
aS'Media'
p4998
aS'Music'
p4999
aS'Publishing'
p5000
aS'Retail'
p5001
assS'remix-second-hand'
p5002
(dp5003
g3
(dp5004
ssS'uncdigital'
p5005
(dp5006
g10
(dp5007
S'Acquisitions'
p5008
S'0'
p5009
sS'Growth score'
p5010
S'88'
p5011
sS'Mindshare score'
p5012
S'88'
p5013
sS'Employees'
p5014
g282
sS'Last funding'
p5015
g100
sS'Founded'
p5016
g100
sS'Location'
p5017
S'Adegstanbul'
p5018
sS'Total funding'
p5019
S'Undisclosed'
p5020
sS'Stage'
p5021
S'No Known Funding'
p5022
ssg3
(lp5023
Vsiftery
p5024
aVmixpanel
p5025
aVgauges
p5026
aVmicrosoft-azure
p5027
aVmodernizr
p5028
aVpiwik
p5029
aVquantcast-measure
p5030
aVgoogle-fonts
p5031
aVkissmetrics
p5032
aVmicrosoft-iis
p5033
aVgeotrust-ssl
p5034
aVasana
p5035
aVwordpress
p5036
aVgodaddy-dns
p5037
aVcriteo
p5038
aVgoogle-apps-for-work
p5039
aVapp-annie
p5040
aVoptimizely
p5041
aVadroll
p5042
aVyandex-metrica
p5043
aVdropbox
p5044
aVsegment
p5045
aVperfect-audience
p5046
aVgoogle-maps
p5047
aVhotjar
p5048
aVgoogle-tag-manager
p5049
aVgoogle-analytics
p5050
asg79
(lp5051
ssS'lima-1'
p5052
(dp5053
g10
(dp5054
S'Acquisitions'
p5055
S'0'
p5056
sS'Growth score'
p5057
S'21'
p5058
sS'Mindshare score'
p5059
S'21'
p5060
sS'Employees'
p5061
g282
sS'Last funding'
p5062
g100
sS'Founded'
p5063
g100
sS'Location'
p5064
g282
sS'Total funding'
p5065
S'Undisclosed'
p5066
sS'Stage'
p5067
S'No Known Funding'
p5068
ssg3
(lp5069
Vtrello
p5070
aVangellist-jobs
p5071
aVboomerang-for-gmail
p5072
aVmicrosoft-office-365
p5073
aVsumome
p5074
aVskype
p5075
aVevernote
p5076
aVmailjet
p5077
aVgoogle-fonts
p5078
aVsendgrid
p5079
aVsiftery
p5080
aVgoogle-hangouts
p5081
aVazetone-mobile-ab-testing-ariseio
p5082
aVwordpress
p5083
aVcriteo
p5084
aVcloudflare
p5085
aVgoogle-apps-for-work
p5086
aVab-tasty
p5087
aVintercom
p5088
aVpaypal
p5089
aVadroll
p5090
aVinvision
p5091
aVstripe
p5092
aVcustomerio
p5093
aVdropbox
p5094
aVamazon-ec2
p5095
aVsegment
p5096
aVjquery
p5097
aVgithub
p5098
aVgoogle-tag-manager
p5099
aVzendesk
p5100
aVgoogle-analytics
p5101
aVkissmetrics
p5102
asg79
(lp5103
S'Finance'
p5104
aS'Healthcare'
p5105
aS'Internet of Things'
p5106
aS'Pharmaceuticals'
p5107
aS'Real Estate'
p5108
assS'cotopaxi'
p5109
(dp5110
g10
(dp5111
S'Acquisitions'
p5112
S'0'
p5113
sS'Growth score'
p5114
S'606'
p5115
sS'Mindshare score'
p5116
S'565'
p5117
sS'Employees'
p5118
S'37'
p5119
sS'Last funding'
p5120
S'a year ago'
p5121
sS'Founded'
p5122
S'2014'
p5123
sS'Location'
p5124
S'Salt Lake City'
p5125
sS'Total funding'
p5126
S'$7M'
p5127
sS'Stage'
p5128
S'Series A'
p5129
ssg3
(lp5130
Vyieldify
p5131
aVtrello
p5132
aVadobe-typekit
p5133
aVdocusign
p5134
aVsiftery
p5135
aVnetsuite-erp
p5136
aVmicrosoft-office-365
p5137
aVdigicert
p5138
aVavant-metrics
p5139
aVrecruiterbox
p5140
aVquantcast-measure
p5141
aVshopify
p5142
aVsendgrid
p5143
aVlucky-orange
p5144
aVtalkable
p5145
aVfriendbuy
p5146
aVbluehost
p5147
aVwordpress
p5148
aVhull
p5149
aVravenjs
p5150
aVcriteo
p5151
aVoptimizely
p5152
aVvenmo
p5153
aVgoogle-apps-for-work
p5154
aVpaypal
p5155
aVnetwork-solutions-domain-registration
p5156
aVrecaptcha
p5157
aVadobe-flash
p5158
aVadroll
p5159
aVsalesforce-sales-cloud
p5160
aVnginx
p5161
aVauthorizenet
p5162
aVdropbox
p5163
aVjquery
p5164
aVnew-relic
p5165
aVgithub
p5166
aVpusher
p5167
aVslack
p5168
aVzapier
p5169
aVklaviyo
p5170
aVbootstrap
p5171
aVzendesk
p5172
aVzopim
p5173
aVgoogle-analytics
p5174
asg79
(lp5175
S'B2C'
p5176
aS'Crowdfunding'
p5177
aS'E-Commerce'
p5178
assS'fastspring'
p5179
(dp5180
g10
(dp5181
S'Acquisitions'
p5182
S'0'
p5183
sS'Growth score'
p5184
S'145'
p5185
sS'Mindshare score'
p5186
S'96'
p5187
sS'Employees'
p5188
S'51'
p5189
sS'Last funding'
p5190
S'3 years ago'
p5191
sS'Founded'
p5192
S'2005'
p5193
sS'Location'
p5194
S'Santa Barbara'
p5195
sS'Total funding'
p5196
S'Undisclosed'
p5197
sS'Stage'
p5198
S'Late'
p5199
ssg3
(lp5200
Vrackspace-email
p5201
aVshareasale
p5202
aVwistia
p5203
aVbox
p5204
aVangularjs
p5205
aVpiwik
p5206
aVamazon-route-53
p5207
aVapache-web-server
p5208
aVmicrosoft-office-365
p5209
aVgoogle-fonts
p5210
aVsalesforce-marketing-cloud
p5211
aVsiftery
p5212
aVasana
p5213
aVhubspot-marketing-platform
p5214
aVclicky
p5215
aVoptimizely
p5216
aVgodaddy-ssl
p5217
aVsocketlabs
p5218
aVgoogle-apps-for-work
p5219
aVjazz
p5220
aVrecaptcha
p5221
aVjavascript
p5222
aVadroll
p5223
aVmailchimp
p5224
aVamazon-ses
p5225
aVdropbox
p5226
aVjquery
p5227
aVapache-http-server
p5228
aVslack
p5229
aVgoogle-tag-manager
p5230
aVzendesk
p5231
aVgoogle-analytics
p5232
asg79
(lp5233
S'B2B'
p5234
aS'B2C'
p5235
aS'Marketplace'
p5236
aS'SaaS'
p5237
aS'Subscription'
p5238
aS'E-Commerce'
p5239
aS'Gaming'
p5240
assS'clarus-commerce'
p5241
(dp5242
g10
(dp5243
S'Acquisitions'
p5244
S'0'
p5245
sS'Growth score'
p5246
S'-5'
p5247
sS'Mindshare score'
p5248
S'-5'
p5249
sS'Employees'
p5250
g282
sS'Last funding'
p5251
g100
sS'Founded'
p5252
S'2001'
p5253
sS'Location'
p5254
S'Rocky Hill'
p5255
sS'Total funding'
p5256
S'Undisclosed'
p5257
sS'Stage'
p5258
S'No Known Funding'
p5259
ssg3
(dp5260
sg79
(lp5261
S'B2B'
p5262
assS'yottaa'
p5263
(dp5264
g10
(dp5265
S'Acquisitions'
p5266
S'0'
p5267
sS'Growth score'
p5268
S'71'
p5269
sS'Mindshare score'
p5270
S'69'
p5271
sS'Employees'
p5272
S'49'
p5273
sS'Last funding'
p5274
S'3 years ago'
p5275
sS'Founded'
p5276
S'2009'
p5277
sS'Location'
p5278
S'Boston'
p5279
sS'Total funding'
p5280
S'$29M'
p5281
sS'Stage'
p5282
S'Series C'
p5283
ssg3
(lp5284
Vsiftery
p5285
aVadobe-typekit
p5286
aVwistia
p5287
aVpiwik
p5288
aVapache-web-server
p5289
aVmarketo
p5290
aVwp-engine
p5291
aVdns-made-easy
p5292
aVsendgrid
p5293
aVcertify
p5294
aVwordpress
p5295
aVdapulse
p5296
aVhubspot-marketing-platform
p5297
aVgoogle-apps-for-work
p5298
aVhootsuite
p5299
aVadroll
p5300
aVamazon-ses
p5301
aVbrightinfo
p5302
aVslack
p5303
aVcedexis-radar
p5304
aVuberflip
p5305
aVgoogle-maps
p5306
aVzendesk
p5307
aVgoogle-analytics
p5308
aVgravity-forms
p5309
asg79
(lp5310
S'B2B'
p5311
aS'Bitcoin'
p5312
aS'Finance'
p5313
aS'Internet of Things'
p5314
aS'Software Development'
p5315
assS'microsoft'
p5316
(dp5317
g10
(dp5318
S'Acquisitions'
p5319
S'133'
p5320
sS'Growth score'
p5321
S'559'
p5322
sS'Mindshare score'
p5323
S'559'
p5324
sS'Employees'
p5325
S'130,494'
p5326
sS'Last funding'
p5327
g100
sS'Founded'
p5328
S'1975'
p5329
sS'Location'
p5330
S'Seattle'
p5331
sS'Total funding'
p5332
S'Undisclosed'
p5333
sS'Stage'
p5334
S'Public'
p5335
ssg3
(lp5336
Vlinqia
p5337
aVgigya
p5338
aVbranch-metrics
p5339
aVdscout
p5340
aVmagnetic
p5341
aVarticulate-storyline
p5342
aVgoogle-drive
p5343
aVclassapps-selectsurveynet
p5344
aVamazon-route-53
p5345
aVsalesforce-marketing-cloud
p5346
aVoracle-datalogix
p5347
aVstarmobile
p5348
aVextole
p5349
aVapimetrics
p5350
aVgandinet-domain-registration
p5351
aVsimply-measured
p5352
aVoracle-hyperion-planning
p5353
aVretargeter
p5354
aVcontract-logix
p5355
aVcrashlytics
p5356
aVadobe-flash
p5357
aVseo-powersuite
p5358
aVflickr-api
p5359
aVapache-cordova
p5360
aVangoss-knowledgereader
p5361
aVsurvey-analytics
p5362
aVbuiltwith
p5363
aVadjust
p5364
aVhubb
p5365
aVpluralsight
p5366
aVsentry
p5367
aVverto-analytics
p5368
aVgoogle-apps-for-work
p5369
aVsublime-text
p5370
aVchef
p5371
aVbrightedge
p5372
aVtextio
p5373
aVknowledge-anywhere
p5374
aVquestionpro
p5375
aVuxpin
p5376
aVgenymotion
p5377
aVpostman
p5378
aVentelo
p5379
aVdbvisualizer
p5380
aVevolve24-evolution-platform
p5381
aVgodaddy-domain-registration
p5382
aVmelbourne-it-domain-registration
p5383
aVdegreed-for-business
p5384
aVdynamicsignal
p5385
aVkaggle
p5386
aVnetworkmonkey
p5387
aVinterana
p5388
aVextrahop
p5389
aVlinkedin-sales-navigator
p5390
aVbazaarvoice
p5391
aVbango
p5392
aVhuboard
p5393
aVelastic-kibana
p5394
aVmobit
p5395
aVdocusign
p5396
aVscalearc
p5397
aVhostmonster
p5398
aVyahoo-analytics-flurry
p5399
aVbeckon
p5400
aVmarketo
p5401
aVcontactexpress
p5402
aVqualys
p5403
aVsocedo
p5404
aVnylas-n1
p5405
aVsap-erp
p5406
aVlogicmonitor
p5407
aVmindsumo
p5408
aVkanjoya-perception-for-workforce-intelligence
p5409
aVappnexus
p5410
aVsap-businessobjects-bi
p5411
aVf
p5412
aVatlassian-bitbucket
p5413
aVunomy
p5414
aVusersnap
p5415
aVindix
p5416
aVdstillery
p5417
aVpusher
p5418
aVsitefinity-digital-experience-cloud
p5419
aVnativo
p5420
aVcedexis-openmix
p5421
aVtext100
p5422
aVoutbrain
p5423
aVkissmetrics
p5424
aVsansa-security
p5425
aVcrowdflower
p5426
aVfoxit
p5427
aVdevart
p5428
aV77agency
p5429
aVangoss-knowledgeseeker
p5430
aVflixmedia
p5431
aVapache-hbase
p5432
aVsynergy-wholesale-domain-registration
p5433
aVadsuit
p5434
aVlisnr
p5435
aVpositive-ssl
p5436
aVspiceworks
p5437
aVenom-domain-registration
p5438
aVsprinklr
p5439
aVsalespredict
p5440
aVgraphiq-findthebest
p5441
aVgithub
p5442
aVviglink
p5443
aVbootstrap
p5444
aVhockeyapp
p5445
aVtealium
p5446
aVappboy
p5447
aVkenshoo
p5448
aVtapad
p5449
aVfluentd
p5450
aVtagboard
p5451
aVcachefly
p5452
aVovh-domain-registration
p5453
aVlenos-regengine
p5454
aVlex-machina
p5455
aVpitchbook
p5456
aVcontainership
p5457
aVamazon-cloudfront
p5458
aVdns-made-easy
p5459
aVpayboard
p5460
aVaplusnet-domain-registration
p5461
aVbounce-exchange
p5462
aVtalkwalker
p5463
aVcorehub-domain-registration
p5464
aVtucows-domain-registration
p5465
aVcoverity
p5466
aVfactual
p5467
aVsteelbrick
p5468
aVadroll
p5469
aVangoss-insightoptimizer
p5470
aVmention
p5471
aVcedexis-radar
p5472
aVamazon-ec2
p5473
aVklear
p5474
aVakamai-intelligent-platform
p5475
aVgitlab
p5476
aVraygun
p5477
aVrapidmail
p5478
aVgravatar
p5479
aVneustar-ultradns
p5480
aVgoogle-analytics
p5481
aVmulesoft
p5482
aVwhoknows
p5483
aVuservoice
p5484
aVteamwork-chat
p5485
aVadespresso
p5486
aVcloudfactory
p5487
aVneo4j
p5488
aVensighten
p5489
aVtrumpia
p5490
aVservicesource
p5491
aVtelerik-test-studio
p5492
aVmentimeter
p5493
aValliance-tech
p5494
aVsencha
p5495
aVwebtrends
p5496
aVliveperson
p5497
aVtelerik-kendo-ui
p5498
aVgradeus
p5499
aVatlassian-jira
p5500
aVping-identity
p5501
aVtelerik-teampulse
p5502
aVapteligent
p5503
aVapache-spark
p5504
aVbmc-remedy
p5505
aVcb-insights
p5506
aVanychart
p5507
aVsojern
p5508
aVlanyon-regonline
p5509
aVbuysellads
p5510
aVelasticsearch
p5511
aVapache-cassandra
p5512
aVionic
p5513
aVsaberr
p5514
aVclicktale
p5515
aVmadcap-flare
p5516
aVwochit
p5517
aVgameffective
p5518
aVibm-cloudant
p5519
aVlexalytics-semantria
p5520
aVquantcast-measure
p5521
aVdiffbot
p5522
aVhourlynerd
p5523
aVworkboard
p5524
aVsmashicons
p5525
aVsnaplogic
p5526
aVclearslide
p5527
aVcoosto
p5528
aVembedly
p5529
aVmohimap
p5530
aVxamarin-insights
p5531
aVsearchyourcloud
p5532
aVlivestream
p5533
aVcoworker-coffee
p5534
aVgrunt
p5535
aVhetzner-domain-registration
p5536
aVtellwise
p5537
aVcontent-square
p5538
aVapache-hadoop
p5539
aVpagely
p5540
aVglobalsign
p5541
aVheg-domain-registration
p5542
aVmadison-logic
p5543
aVtapinfluence
p5544
aVmarkmonitor-domain-management
p5545
aVnetapp
p5546
aVgeofeedia
p5547
aVakamai-fast-dns
p5548
aVhue
p5549
aVapache-commons
p5550
aVbluip
p5551
aVcloudmunch
p5552
aVfacebook-ads
p5553
aVtelerik-devcraft
p5554
aVfortumo
p5555
aVmindswarms
p5556
aVtapstream
p5557
aVsocialbakers
p5558
aVdundas
p5559
aVtheplatform
p5560
aVgild
p5561
aVgoogle-doubleclick
p5562
aVhiree
p5563
aVoctopus-deploy
p5564
aVangoss-knowledgestudio
p5565
aVmoqups
p5566
aVsegment
p5567
aVapache-hive
p5568
aVfinancial-engines
p5569
aVsocialmetrix
p5570
aVjupyter
p5571
aVregister4less-domain-registration
p5572
aVsalesify
p5573
aVprinciple
p5574
aVdoubleverify
p5575
aVmythings
p5576
aVmopro
p5577
aVsurveygizmo
p5578
aVdrawbridge
p5579
aVtrapit
p5580
aVowler
p5581
aVservicenow
p5582
aVwufoo
p5583
aVonbarcode
p5584
aVdyn-dns
p5585
aVmouseflow
p5586
aVveritas-netbackup
p5587
aVtaboola
p5588
aVjquery
p5589
aVadobe-marketing-cloud
p5590
aVvisual-paradigm
p5591
aVonalytica
p5592
aVsalestools
p5593
aVtwilio
p5594
aVconviva
p5595
aVdisqus
p5596
aVuberflip
p5597
aVpagerduty
p5598
aVcouchbase
p5599
aVtruex
p5600
aVbluehornet
p5601
aVleadspace
p5602
aVsoasta-mpulse
p5603
aVmindflash-lms
p5604
aVkeynote
p5605
aVsumome
p5606
aValteryx
p5607
aVwiplo
p5608
aVpingdom
p5609
aVcentrify-identity-service
p5610
aVintelligize
p5611
aVpolldaddy
p5612
aVsoapui
p5613
aVslack
p5614
aVfusioncharts
p5615
aVsmartsupp-live-chat
p5616
aVquestback
p5617
aVfanplayr
p5618
aVjavascript
p5619
aVeyereturn
p5620
aVinvision
p5621
aVpublic-domain-registry-domain-registration
p5622
aVamazon-ses
p5623
aVmcafee-saas
p5624
aVwageworks
p5625
aVredgate
p5626
aVcision-social
p5627
aVadobe-audience-manager
p5628
aVcaplinked
p5629
aVqorus
p5630
aVdigital-river
p5631
aVhackerrank
p5632
aVangoss-knowledgecore
p5633
aVclearstory-data
p5634
aVtelerik-platform
p5635
aVdomaindiscount24-domain-registration
p5636
aVquintly
p5637
aVtalentbrew
p5638
aVquid
p5639
aVcoinbase-merchants
p5640
aVrfactor
p5641
aVmilwardbrowndigital
p5642
aVtableau-software
p5643
aVcontent-fleet
p5644
aVninthdecimal
p5645
aVjw-player
p5646
aVroundpegg
p5647
aVcalligraphy
p5648
aVganglia
p5649
aVathoc
p5650
aVseattleclouds
p5651
aVcoveralls
p5652
aVeverstring
p5653
aVrallyverse
p5654
aVzingchart
p5655
aVlocalytics
p5656
aVswrve
p5657
aVtrello
p5658
aVoptimal-idm
p5659
aVadobe-typekit
p5660
aVappriver
p5661
aVskype
p5662
aVtango-card
p5663
aVkochava
p5664
aVcleardb
p5665
aVgkg-domain-registration
p5666
aVsurveymoz
p5667
aVsendgrid
p5668
aVverne
p5669
aVaternity
p5670
aVsurveymonkey
p5671
aVstorify
p5672
aVcloudflare
p5673
aVrecaptcha
p5674
aVmemsql
p5675
aVinxpo
p5676
aVhitslink
p5677
aVab-tasty
p5678
aVlatentview
p5679
aVsocialondemand
p5680
aVfolio
p5681
aVwaterfall
p5682
aVpyramid-analytics-bi-office
p5683
aVapache-sqoop
p5684
aVberdrock-data
p5685
aVfastdomain-domain-registration
p5686
aVpiazza
p5687
aVnet-applications-netmarketshare
p5688
aValtoros
p5689
aVkraken
p5690
aVtestrail
p5691
aVdocker
p5692
aVsocialchorus
p5693
aVunified
p5694
aVapptio
p5695
aVloggly
p5696
aVcrowdin
p5697
aVgravity
p5698
aVredis-labs
p5699
aVhello-world-formerly-eprize
p5700
aVlocalize
p5701
aVeffective-measure
p5702
aVanswerhub
p5703
aVruby-on-rails
p5704
aVsalesforce-deskcom
p5705
aVitextpdf
p5706
aVnavicat
p5707
aVolark
p5708
aVbugsnag
p5709
aVsprout-social
p5710
aVmixpanel
p5711
aVcrimson-hexagon
p5712
aVapp-annie
p5713
aVradiumone-post
p5714
aVnew-relic
p5715
aVcentercode
p5716
aVdoorbell
p5717
aVbitpay
p5718
aVjibe
p5719
aVresolver
p5720
aVappdirect
p5721
aVchanneladvisor
p5722
aVlanyon-smart-hotel-cloud
p5723
aVsematext
p5724
aVgoogle-tag-manager
p5725
aVspring-framework
p5726
aVmodernizr
p5727
aVatlassian-bamboo
p5728
aVgodaddy-professional-email
p5729
aVoracle-data-cloud-bluekaidatalogix
p5730
aVfastmail
p5731
aVredis
p5732
aVtrendemon
p5733
aVwayin
p5734
aVcriteo
p5735
aVoptimizely
p5736
aVfireeye
p5737
aVcrazyegg
p5738
aVopenprovider-domain-registration
p5739
aVc-1000
p5740
aVlogstash
p5741
aVandela
p5742
aVpostgresql
p5743
aVlinkedin-elevate
p5744
aVglassdoor-jobs
p5745
aVsp-capital-iq
p5746
aVhired
p5747
aVbrowserstack
p5748
aVshowpad
p5749
aVtribe
p5750
aVascio-domain-registration
p5751
aVintermedia-hosted-exchange
p5752
aVthe-trade-desk
p5753
aVdexi
p5754
aVatlassian-sourcetree
p5755
aVqualtrics-research-suite
p5756
aVvirtualbox
p5757
aVcloseio
p5758
aVdemandbase
p5759
aVgit
p5760
aVsiftery
p5761
aVscoopit
p5762
aVzoominfo
p5763
aVelement-analytics
p5764
aVheroku
p5765
aVwordpress
p5766
aVchartbeat
p5767
aVgodaddy-ssl
p5768
aVsymantec-ssl
p5769
aVcustora
p5770
aVtalentbin
p5771
aVbouncycastle-crypto
p5772
aVzerolag-dedicated-exchange-hosting
p5773
aVquixey
p5774
aVcloudamqp
p5775
aVgenuitec
p5776
aVneuron-esb
p5777
aVapiary
p5778
aVpassenger
p5779
aVoneall
p5780
aVinnovid
p5781
aVinstra-domain-registration
p5782
aVsynchronoss
p5783
aVpeople-hr
p5784
aVcommunit
p5785
aVdataxu
p5786
aVgoogle-fonts
p5787
aVappveyor
p5788
aVlogmein-rescue
p5789
aVclicky
p5790
aVjenkins
p5791
aVbeqom
p5792
aVmongodb
p5793
aVzenhub
p5794
aVlookeen
p5795
aVaddthis
p5796
aVsocialwally
p5797
aVdropbox
p5798
aVxamarin
p5799
aVflippingbook
p5800
aVonespot
p5801
aVmandrill
p5802
aVoneload
p5803
aVmixrank
p5804
aVn3
p5805
asg79
(lp5806
S'B2B'
p5807
aS'B2C'
p5808
aS'Cloud Computing'
p5809
aS'Enterprise Software'
p5810
aS'Gaming'
p5811
aS'Hardware'
p5812
aS'Network / Hosting / Infrastructure'
p5813
aS'Security'
p5814
aS'Software Development'
p5815
ass.